; ============================================================
; HexCore Remill IR Lift (EXPERIMENTAL)
; File: wwzRetailEgs.exe
; Address: 0x1419b3460
; Size: 2250 bytes
; Architecture: amd64
; Generated: 2026-03-04T21:41:52.852Z
; ============================================================
; ModuleID = '\\?\c:\Users\Mazum\Desktop\vscode-main\extensions\hexcore-remill\deps\remill\share\semantics\amd64.bc'
source_filename = "llvm-link"
target datalayout = "e-m:w-i64:64-f80:128-n8:16:32:64-S128"
target triple = "x86_64-unknown-windows-msvc-coff"

%struct.State = type { %struct.X86State }
%struct.X86State = type { %struct.ArchState, [32 x %union.VectorReg], %struct.ArithFlags, %union.anon, %struct.Segments, %struct.AddressSpace, %struct.GPR, %struct.X87Stack, %struct.MMX, %struct.FPUStatusFlags, %union.anon, %union.FPU, %struct.SegmentCaches, %struct.K_REG }
%struct.ArchState = type { i32, i32, %union.anon }
%union.VectorReg = type { %union.vec512_t }
%union.vec512_t = type { %struct.uint128v4_t }
%struct.uint128v4_t = type { [4 x i128] }
%struct.ArithFlags = type { i8, i8, i8, i8, i8, i8, i8, i8, i8, i8, i8, i8, i8, i8, i8, i8 }
%struct.Segments = type { i16, %union.SegmentSelector, i16, %union.SegmentSelector, i16, %union.SegmentSelector, i16, %union.SegmentSelector, i16, %union.SegmentSelector, i16, %union.SegmentSelector }
%union.SegmentSelector = type { i16 }
%struct.AddressSpace = type { i64, %struct.Reg, i64, %struct.Reg, i64, %struct.Reg, i64, %struct.Reg, i64, %struct.Reg, i64, %struct.Reg }
%struct.Reg = type { %union.anon }
%struct.GPR = type { i64, %struct.Reg, i64, %struct.Reg, i64, %struct.Reg, i64, %struct.Reg, i64, %struct.Reg, i64, %struct.Reg, i64, %struct.Reg, i64, %struct.Reg, i64, %struct.Reg, i64, %struct.Reg, i64, %struct.Reg, i64, %struct.Reg, i64, %struct.Reg, i64, %struct.Reg, i64, %struct.Reg, i64, %struct.Reg, i64, %struct.Reg }
%struct.X87Stack = type { [8 x %struct.anon.3] }
%struct.anon.3 = type { [6 x i8], %struct.float80_t }
%struct.float80_t = type { [10 x i8] }
%struct.MMX = type { [8 x %struct.anon.4] }
%struct.anon.4 = type { i64, %union.vec64_t }
%union.vec64_t = type { %struct.uint64v1_t }
%struct.uint64v1_t = type { [1 x i64] }
%struct.FPUStatusFlags = type { i8, i8, i8, i8, i8, i8, i8, i8, i8, i8, i8, i8, i8, i8, i8, i8, i8, i8, i8, i8, i8, i8, [2 x i8] }
%union.anon = type { i64 }
%union.FPU = type { %struct.anon.13 }
%struct.anon.13 = type { %struct.FpuFXSAVE, [96 x i8] }
%struct.FpuFXSAVE = type { %union.SegmentSelector, %union.SegmentSelector, %union.FPUAbridgedTagWord, i8, i16, i32, %union.SegmentSelector, i16, i32, %union.SegmentSelector, i16, %union.FPUControlStatus, %union.FPUControlStatus, [8 x %struct.FPUStackElem], [16 x %union.vec128_t] }
%union.FPUAbridgedTagWord = type { i8 }
%union.FPUControlStatus = type { i32 }
%struct.FPUStackElem = type { %union.anon.11, [6 x i8] }
%union.anon.11 = type { %struct.float80_t }
%union.vec128_t = type { %struct.uint128v1_t }
%struct.uint128v1_t = type { [1 x i128] }
%struct.SegmentCaches = type { %struct.SegmentShadow, %struct.SegmentShadow, %struct.SegmentShadow, %struct.SegmentShadow, %struct.SegmentShadow, %struct.SegmentShadow }
%struct.SegmentShadow = type { %union.anon, i32, i32 }
%struct.K_REG = type { [8 x %struct.anon.18] }
%struct.anon.18 = type { i64, i64 }

; Function Attrs: noduplicate noinline nounwind optnone
declare !remill.function.type !5 dso_local ptr @__remill_write_memory_8(ptr noundef, i64 noundef, i8 noundef zeroext) #0

; Function Attrs: noduplicate noinline nounwind optnone
declare !remill.function.type !5 dso_local zeroext i1 @__remill_flag_computation_carry(i1 noundef zeroext, ...) #0

; Function Attrs: nocallback nofree nosync nounwind speculatable willreturn memory(none)
declare !remill.function.type !5 i8 @llvm.ctpop.i8(i8) #1

; Function Attrs: noduplicate noinline nounwind optnone
declare !remill.function.type !5 dso_local zeroext i1 @__remill_flag_computation_zero(i1 noundef zeroext, ...) #0

; Function Attrs: noduplicate noinline nounwind optnone
declare !remill.function.type !5 dso_local zeroext i1 @__remill_flag_computation_sign(i1 noundef zeroext, ...) #0

; Function Attrs: noduplicate noinline nounwind optnone
declare !remill.function.type !5 dso_local zeroext i1 @__remill_flag_computation_overflow(i1 noundef zeroext, ...) #0

; Function Attrs: noduplicate noinline nounwind optnone
declare !remill.function.type !5 dso_local i32 @__remill_read_memory_32(ptr noundef, i64 noundef) #0

; Function Attrs: noduplicate noinline nounwind optnone
declare !remill.function.type !5 dso_local ptr @__remill_write_memory_32(ptr noundef, i64 noundef, i32 noundef) #0

; Function Attrs: noduplicate noinline nounwind optnone
declare !remill.function.type !5 dso_local i64 @__remill_read_memory_64(ptr noundef, i64 noundef) #0

; Function Attrs: noduplicate noinline nounwind optnone
declare !remill.function.type !5 dso_local ptr @__remill_write_memory_64(ptr noundef, i64 noundef, i64 noundef) #0

; Function Attrs: alwaysinline mustprogress nounwind
declare dso_local noundef ptr @_ZN12_GLOBAL__N_13ADDI3RnWImE2RnImLb1EE2InImEEEP6MemoryS8_R5StateT_T0_T1_(ptr noundef readnone returned, ptr nocapture noundef nonnull writeonly align 16 dereferenceable(3504), ptr nocapture writeonly, i64, i64) #2

; Function Attrs: alwaysinline mustprogress nounwind
declare dso_local noundef ptr @_ZN12_GLOBAL__N_13ADDI3RnWImE2RnIjLb1EE2MnIjEEEP6MemoryS8_R5StateT_T0_T1_(ptr noundef returned, ptr nocapture noundef nonnull writeonly align 16 dereferenceable(3504), ptr nocapture writeonly, i64, i64) #2

; Function Attrs: alwaysinline mustprogress nounwind
declare dso_local noundef ptr @_ZN12_GLOBAL__N_13SUBI3RnWImE2RnImLb1EE2InImEEEP6MemoryS8_R5StateT_T0_T1_(ptr noundef readnone returned, ptr nocapture noundef nonnull writeonly align 16 dereferenceable(3504), ptr nocapture writeonly, i64, i64) #2

; Function Attrs: alwaysinline mustprogress nounwind
declare dso_local noundef ptr @_ZN12_GLOBAL__N_13SUBI3RnWImE2RnIjLb1EES4_EEP6MemoryS6_R5StateT_T0_T1_(ptr noundef readnone returned, ptr nocapture noundef nonnull writeonly align 16 dereferenceable(3504), ptr nocapture writeonly, i64, i64) #2

; Function Attrs: alwaysinline mustprogress nounwind
declare dso_local noundef ptr @_ZN12_GLOBAL__N_13CMPI2MnIjE2InIjEEEP6MemoryS6_R5StateT_T0_(ptr noundef returned, ptr nocapture noundef nonnull writeonly align 16 dereferenceable(3504), i64, i64) #2

; Function Attrs: alwaysinline mustprogress nounwind
declare dso_local noundef ptr @_ZN12_GLOBAL__N_13CMPI2RnIjLb1EE2InIjEEEP6MemoryS6_R5StateT_T0_(ptr noundef readnone returned, ptr nocapture noundef nonnull writeonly align 16 dereferenceable(3504), i64, i64) #2

; Function Attrs: alwaysinline mustprogress nounwind
declare dso_local noundef ptr @_ZN12_GLOBAL__N_13CMPI2RnIjLb1EES2_EEP6MemoryS4_R5StateT_T0_(ptr noundef readnone returned, ptr nocapture noundef nonnull writeonly align 16 dereferenceable(3504), i64, i64) #2

; Function Attrs: alwaysinline mustprogress nounwind
declare dso_local noundef ptr @_ZN12_GLOBAL__N_13CMPI2RnImLb1EES2_EEP6MemoryS4_R5StateT_T0_(ptr noundef readnone returned, ptr nocapture noundef nonnull writeonly align 16 dereferenceable(3504), i64, i64) #2

; Function Attrs: noduplicate noinline nounwind optnone
declare !remill.function.type !5 dso_local zeroext i8 @__remill_undefined_8() #0

; Function Attrs: alwaysinline mustprogress nounwind
declare dso_local noundef ptr @_ZN12_GLOBAL__N_13INCI3RnWImE2RnIjLb1EEEEP6MemoryS6_R5StateT_T0_(ptr noundef readnone returned, ptr nocapture noundef nonnull writeonly align 16 dereferenceable(3504), ptr nocapture writeonly, i64) #2

; Function Attrs: alwaysinline mustprogress nofree norecurse nosync nounwind willreturn memory(argmem: readwrite)
declare dso_local noundef ptr @_ZN12_GLOBAL__N_14SETZI3RnWIhEEEP6MemoryS4_R5StateT_(ptr noundef readnone returned, ptr nocapture noundef nonnull readonly align 16 dereferenceable(3504), ptr nocapture writeonly) #3

; Function Attrs: alwaysinline mustprogress nofree norecurse nosync nounwind willreturn memory(argmem: readwrite)
declare dso_local noundef ptr @_ZN12_GLOBAL__N_15SETNZI3RnWIhEEEP6MemoryS4_R5StateT_(ptr noundef readnone returned, ptr nocapture noundef nonnull readonly align 16 dereferenceable(3504), ptr nocapture writeonly) #3

; Function Attrs: alwaysinline mustprogress nounwind
declare dso_local noundef ptr @_ZN12_GLOBAL__N_14CALLI2InImEEEP6MemoryS4_R5StateT_3RnWImES2_S9_(ptr noundef, ptr nocapture noundef nonnull align 16 dereferenceable(3504), i64, ptr nocapture writeonly, i64, ptr nocapture writeonly) #2

; Function Attrs: alwaysinline mustprogress nounwind
declare dso_local noundef ptr @_ZN12_GLOBAL__N_14CALLI2MnImEEEP6MemoryS4_R5StateT_3RnWImE2InImES9_(ptr noundef, ptr nocapture noundef nonnull align 16 dereferenceable(3504), i64, ptr nocapture writeonly, i64, ptr nocapture writeonly) #2

; Function Attrs: alwaysinline mustprogress nounwind
declare dso_local noundef ptr @_ZN12_GLOBAL__N_13RETEP6MemoryR5State3RnWImE(ptr noundef returned, ptr nocapture noundef nonnull align 16 dereferenceable(3504), ptr nocapture writeonly) #2

; Function Attrs: noduplicate noinline nounwind optnone
declare !remill.function.type !5 dso_local zeroext i1 @__remill_compare_sle(i1 noundef zeroext) #0

; Function Attrs: noduplicate noinline nounwind optnone
declare !remill.function.type !5 dso_local zeroext i1 @__remill_compare_neq(i1 noundef zeroext) #0

; Function Attrs: noduplicate noinline nounwind optnone
declare !remill.function.type !5 dso_local zeroext i1 @__remill_compare_eq(i1 noundef zeroext) #0

; Function Attrs: alwaysinline mustprogress nounwind
declare dso_local noundef ptr @_ZN12_GLOBAL__N_15CMOVZI3RnWImE2MnImEEEP6MemoryS6_R5StateT_T0_(ptr noundef returned, ptr nocapture noundef nonnull readonly align 16 dereferenceable(3504), ptr nocapture, i64) #2

declare !remill.function.type !5 dso_local zeroext i1 @__remill_compare_slt(i1 noundef zeroext) #4

; Function Attrs: alwaysinline mustprogress nofree norecurse nosync nounwind willreturn memory(argmem: readwrite)
declare dso_local noundef ptr @_ZN12_GLOBAL__N_13JNSEP6MemoryR5State3RnWIhE2InImES7_S4_ImE(ptr noundef readnone returned, ptr nocapture noundef nonnull readonly align 16 dereferenceable(3504), ptr nocapture writeonly, i64, i64, ptr nocapture writeonly) #3

; Function Attrs: alwaysinline mustprogress nounwind
declare dso_local noundef ptr @_ZN12_GLOBAL__N_12JLEP6MemoryR5State3RnWIhE2InImES7_S4_ImE(ptr noundef readnone returned, ptr nocapture noundef nonnull readonly align 16 dereferenceable(3504), ptr nocapture writeonly, i64, i64, ptr nocapture writeonly) #2

; Function Attrs: alwaysinline mustprogress nounwind
declare dso_local noundef ptr @_ZN12_GLOBAL__N_13JNZEP6MemoryR5State3RnWIhE2InImES7_S4_ImE(ptr noundef readnone returned, ptr nocapture noundef nonnull readonly align 16 dereferenceable(3504), ptr nocapture writeonly, i64, i64, ptr nocapture writeonly) #2

; Function Attrs: alwaysinline mustprogress nounwind
declare dso_local noundef ptr @_ZN12_GLOBAL__N_12JZEP6MemoryR5State3RnWIhE2InImES7_S4_ImE(ptr noundef readnone returned, ptr nocapture noundef nonnull readonly align 16 dereferenceable(3504), ptr nocapture writeonly, i64, i64, ptr nocapture writeonly) #2

; Function Attrs: alwaysinline mustprogress nounwind
declare dso_local noundef ptr @_ZN12_GLOBAL__N_13JLEEP6MemoryR5State3RnWIhE2InImES7_S4_ImE(ptr noundef readnone returned, ptr nocapture noundef nonnull readonly align 16 dereferenceable(3504), ptr nocapture writeonly, i64, i64, ptr nocapture writeonly) #2

; Function Attrs: alwaysinline mustprogress nofree norecurse nosync nounwind willreturn memory(argmem: write)
declare dso_local noundef ptr @_ZN12_GLOBAL__N_13MOVI3RnWImE2InIjEEEP6MemoryS6_R5StateT_T0_(ptr noundef readnone returned, ptr nocapture nonnull readnone align 16, ptr nocapture writeonly, i64) #5

; Function Attrs: alwaysinline mustprogress nounwind
declare dso_local noundef ptr @_ZN12_GLOBAL__N_13MOVI3MnWIhE2InIhEEEP6MemoryS6_R5StateT_T0_(ptr noundef, ptr nocapture nonnull readnone align 16, i64, i64) #2

; Function Attrs: alwaysinline mustprogress nounwind
declare dso_local noundef ptr @_ZN12_GLOBAL__N_13MOVI3MnWIhE2RnIhLb1EEEEP6MemoryS6_R5StateT_T0_(ptr noundef, ptr nocapture nonnull readnone align 16, i64, i64) #2

; Function Attrs: alwaysinline mustprogress nounwind
declare dso_local noundef ptr @_ZN12_GLOBAL__N_13MOVI3MnWIjE2RnIjLb1EEEEP6MemoryS6_R5StateT_T0_(ptr noundef, ptr nocapture nonnull readnone align 16, i64, i64) #2

; Function Attrs: alwaysinline mustprogress nounwind
declare dso_local noundef ptr @_ZN12_GLOBAL__N_13MOVI3MnWImE2RnImLb1EEEEP6MemoryS6_R5StateT_T0_(ptr noundef, ptr nocapture nonnull readnone align 16, i64, i64) #2

; Function Attrs: alwaysinline mustprogress nofree norecurse nosync nounwind willreturn memory(argmem: write)
declare dso_local noundef ptr @_ZN12_GLOBAL__N_13MOVI3RnWImE2RnIjLb1EEEEP6MemoryS6_R5StateT_T0_(ptr noundef readnone returned, ptr nocapture nonnull readnone align 16, ptr nocapture writeonly, i64) #5

; Function Attrs: alwaysinline mustprogress nofree norecurse nosync nounwind willreturn memory(argmem: write)
declare dso_local noundef ptr @_ZN12_GLOBAL__N_13MOVI3RnWImE2RnImLb1EEEEP6MemoryS6_R5StateT_T0_(ptr noundef readnone returned, ptr nocapture nonnull readnone align 16, ptr nocapture writeonly, i64) #5

; Function Attrs: alwaysinline mustprogress nounwind
declare dso_local noundef ptr @_ZN12_GLOBAL__N_13MOVI3RnWImE2MnIjEEEP6MemoryS6_R5StateT_T0_(ptr noundef returned, ptr nocapture nonnull readnone align 16, ptr nocapture writeonly, i64) #2

; Function Attrs: alwaysinline mustprogress nounwind
declare dso_local noundef ptr @_ZN12_GLOBAL__N_13MOVI3RnWImE2MnImEEEP6MemoryS6_R5StateT_T0_(ptr noundef returned, ptr nocapture nonnull readnone align 16, ptr nocapture writeonly, i64) #2

; Function Attrs: alwaysinline mustprogress nofree norecurse nosync nounwind willreturn memory(argmem: write)
declare dso_local noundef ptr @_ZN12_GLOBAL__N_15MOVSXI3RnWImE2RnIjLb1EElEEP6MemoryS6_R5StateT_T0_(ptr noundef readnone returned, ptr nocapture nonnull readnone align 16, ptr nocapture writeonly, i64) #5

; Function Attrs: alwaysinline mustprogress nofree norecurse nosync nounwind willreturn memory(argmem: write)
declare dso_local noundef ptr @_ZN12_GLOBAL__N_16DoINT3EP6MemoryR5State3RnWImE(ptr noundef readnone returned, ptr nocapture noundef nonnull writeonly align 16 dereferenceable(3504), ptr nocapture readnone) #5

; Function Attrs: alwaysinline mustprogress nounwind
declare dso_local noundef ptr @_ZN12_GLOBAL__N_12ORI3RnWImE2RnIjLb1EE2InIjEEEP6MemoryS8_R5StateT_T0_T1_(ptr noundef readnone returned, ptr nocapture noundef nonnull writeonly align 16 dereferenceable(3504), ptr nocapture writeonly, i64, i64) #2

; Function Attrs: alwaysinline mustprogress nounwind
declare dso_local noundef ptr @_ZN12_GLOBAL__N_13XORI3RnWIhE2RnIhLb1EES4_EEP6MemoryS6_R5StateT_T0_T1_(ptr noundef readnone returned, ptr nocapture noundef nonnull writeonly align 16 dereferenceable(3504), ptr nocapture writeonly, i64, i64) #2

; Function Attrs: alwaysinline mustprogress nounwind
declare dso_local noundef ptr @_ZN12_GLOBAL__N_13XORI3RnWImE2RnIjLb1EES4_EEP6MemoryS6_R5StateT_T0_T1_(ptr noundef readnone returned, ptr nocapture noundef nonnull writeonly align 16 dereferenceable(3504), ptr nocapture writeonly, i64, i64) #2

; Function Attrs: alwaysinline mustprogress nounwind
declare dso_local noundef ptr @_ZN12_GLOBAL__N_14TESTI2RnIjLb1EES2_EEP6MemoryS4_R5StateT_T0_(ptr noundef readnone returned, ptr nocapture noundef nonnull writeonly align 16 dereferenceable(3504), i64, i64) #2

; Function Attrs: alwaysinline mustprogress nounwind
declare dso_local noundef ptr @_ZN12_GLOBAL__N_14TESTI2RnImLb1EES2_EEP6MemoryS4_R5StateT_T0_(ptr noundef readnone returned, ptr nocapture noundef nonnull writeonly align 16 dereferenceable(3504), i64, i64) #2

; Function Attrs: alwaysinline mustprogress nofree norecurse nosync nounwind willreturn memory(argmem: write)
declare dso_local noundef ptr @_ZN12_GLOBAL__N_13LEAI3RnWImE2MnIhEjEEP6MemoryS6_R5StateT_T0_(ptr noundef readnone returned, ptr nocapture nonnull readnone align 16, ptr nocapture writeonly, i64) #5

; Function Attrs: alwaysinline mustprogress nofree norecurse nosync nounwind willreturn memory(argmem: write)
declare dso_local noundef ptr @_ZN12_GLOBAL__N_13LEAI3RnWImE2MnIhEmEEP6MemoryS6_R5StateT_T0_(ptr noundef readnone returned, ptr nocapture nonnull readnone align 16, ptr nocapture writeonly, i64) #5

; Function Attrs: alwaysinline mustprogress nofree norecurse nosync nounwind willreturn memory(none)
declare dso_local noundef ptr @_ZN12_GLOBAL__N_18NOP_IMPLIJ2MnItEEEEP6MemoryS4_R5StateDpT_(ptr noundef readnone returned, ptr nocapture nonnull readnone align 16, i64) #6

; Function Attrs: alwaysinline mustprogress nofree norecurse nosync nounwind willreturn memory(none)
declare dso_local noundef ptr @_ZN12_GLOBAL__N_18NOP_IMPLIJ2MnIjEEEEP6MemoryS4_R5StateDpT_(ptr noundef readnone returned, ptr nocapture nonnull readnone align 16, i64) #6

; Function Attrs: alwaysinline mustprogress nounwind
declare dso_local noundef ptr @_ZN12_GLOBAL__N_13POPI3RnWImEEEP6MemoryS4_R5StateT_(ptr noundef returned, ptr nocapture noundef nonnull align 16 dereferenceable(3504), ptr nocapture writeonly) #2

; Function Attrs: alwaysinline mustprogress nounwind
declare dso_local noundef ptr @_ZN12_GLOBAL__N_14PUSHI2InImEEEP6MemoryS4_R5StateT_(ptr noundef, ptr nocapture noundef nonnull align 16 dereferenceable(3504), i64) #2

; Function Attrs: alwaysinline mustprogress nofree norecurse nosync nounwind willreturn memory(argmem: write)
declare dso_local noundef ptr @_ZN12_GLOBAL__N_13JMPI2InImEEEP6MemoryS4_R5StateT_3RnWImE(ptr noundef readnone returned, ptr nocapture noundef nonnull writeonly align 16 dereferenceable(3504), i64, ptr nocapture writeonly) #5

define ptr @lifted_5395657824(ptr noalias %state, i64 %program_counter, ptr noalias %memory) {
  %CL = getelementptr inbounds %struct.State, ptr %state, i32 0, i32 0, i32 6, i32 5, i32 0, i32 0, !remill_register !6
  %ECX = getelementptr inbounds %struct.State, ptr %state, i32 0, i32 0, i32 6, i32 5, i32 0, i32 0, !remill_register !7
  %R9 = getelementptr inbounds %struct.State, ptr %state, i32 0, i32 0, i32 6, i32 19, i32 0, i32 0, !remill_register !8
  %EBX = getelementptr inbounds %struct.State, ptr %state, i32 0, i32 0, i32 6, i32 3, i32 0, i32 0, !remill_register !9
  %EDI = getelementptr inbounds %struct.State, ptr %state, i32 0, i32 0, i32 6, i32 11, i32 0, i32 0, !remill_register !10
  %EDX = getelementptr inbounds %struct.State, ptr %state, i32 0, i32 0, i32 6, i32 7, i32 0, i32 0, !remill_register !11
  %RSI = getelementptr inbounds %struct.State, ptr %state, i32 0, i32 0, i32 6, i32 9, i32 0, i32 0, !remill_register !12
  %RBP = getelementptr inbounds %struct.State, ptr %state, i32 0, i32 0, i32 6, i32 15, i32 0, i32 0, !remill_register !13
  %RBX = getelementptr inbounds %struct.State, ptr %state, i32 0, i32 0, i32 6, i32 3, i32 0, i32 0, !remill_register !14
  %AL = getelementptr inbounds %struct.State, ptr %state, i32 0, i32 0, i32 6, i32 1, i32 0, i32 0, !remill_register !15
  %RDI = getelementptr inbounds %struct.State, ptr %state, i32 0, i32 0, i32 6, i32 11, i32 0, i32 0, !remill_register !16
  %R9D = getelementptr inbounds %struct.State, ptr %state, i32 0, i32 0, i32 6, i32 19, i32 0, i32 0, !remill_register !17
  %R8 = getelementptr inbounds %struct.State, ptr %state, i32 0, i32 0, i32 6, i32 17, i32 0, i32 0, !remill_register !18
  %RDX = getelementptr inbounds %struct.State, ptr %state, i32 0, i32 0, i32 6, i32 7, i32 0, i32 0, !remill_register !19
  %EAX = getelementptr inbounds %struct.State, ptr %state, i32 0, i32 0, i32 6, i32 1, i32 0, i32 0, !remill_register !20
  %RCX = getelementptr inbounds %struct.State, ptr %state, i32 0, i32 0, i32 6, i32 5, i32 0, i32 0, !remill_register !21
  %RSP = getelementptr inbounds %struct.State, ptr %state, i32 0, i32 0, i32 6, i32 13, i32 0, i32 0, !remill_register !22
  %RAX = getelementptr inbounds %struct.State, ptr %state, i32 0, i32 0, i32 6, i32 1, i32 0, i32 0, !remill_register !23
  %BRANCH_TAKEN = alloca i8, align 1
  %RETURN_PC = alloca i64, align 8
  %MONITOR = alloca i64, align 8
  store i64 0, ptr %MONITOR, align 8
  %STATE = alloca ptr, align 8
  store ptr %state, ptr %STATE, align 8
  %MEMORY = alloca ptr, align 8
  store ptr %memory, ptr %MEMORY, align 8
  %NEXT_PC = alloca i64, align 8
  store i64 %program_counter, ptr %NEXT_PC, align 8
  %PC = getelementptr inbounds %struct.State, ptr %state, i32 0, i32 0, i32 6, i32 33, i32 0, i32 0, !remill_register !24
  %CSBASE = alloca i64, align 8
  store i64 0, ptr %CSBASE, align 8
  %SSBASE = alloca i64, align 8
  store i64 0, ptr %SSBASE, align 8
  %ESBASE = alloca i64, align 8
  store i64 0, ptr %ESBASE, align 8
  %DSBASE = alloca i64, align 8
  store i64 0, ptr %DSBASE, align 8
  %1 = load i64, ptr %NEXT_PC, align 8
  store i64 %1, ptr %PC, align 8
  %2 = add i64 %1, 4
  store i64 %2, ptr %NEXT_PC, align 8
  %3 = load i64, ptr %RSP, align 8
  %4 = add i64 %3, 48
  %5 = load ptr, ptr %MEMORY, align 8
  %6 = call ptr @_ZN12_GLOBAL__N_13MOVI3RnWImE2MnIjEEEP6MemoryS6_R5StateT_T0_(ptr %5, ptr %state, ptr %RAX, i64 %4)
  store ptr %6, ptr %MEMORY, align 8
  %7 = load i64, ptr %NEXT_PC, align 8
  store i64 %7, ptr %PC, align 8
  %8 = add i64 %7, 3
  store i64 %8, ptr %NEXT_PC, align 8
  %9 = load i64, ptr %RCX, align 8
  %10 = add i64 %9, 20
  %11 = load i32, ptr %EAX, align 4
  %12 = zext i32 %11 to i64
  %13 = load ptr, ptr %MEMORY, align 8
  %14 = call ptr @_ZN12_GLOBAL__N_13MOVI3MnWIjE2RnIjLb1EEEEP6MemoryS6_R5StateT_T0_(ptr %13, ptr %state, i64 %10, i64 %12)
  store ptr %14, ptr %MEMORY, align 8
  %15 = load i64, ptr %NEXT_PC, align 8
  store i64 %15, ptr %PC, align 8
  %16 = add i64 %15, 5
  store i64 %16, ptr %NEXT_PC, align 8
  %17 = load i64, ptr %RSP, align 8
  %18 = add i64 %17, 56
  %19 = load ptr, ptr %MEMORY, align 8
  %20 = call ptr @_ZN12_GLOBAL__N_13MOVI3RnWImE2MnImEEEP6MemoryS6_R5StateT_T0_(ptr %19, ptr %state, ptr %RAX, i64 %18)
  store ptr %20, ptr %MEMORY, align 8
  %21 = load i64, ptr %NEXT_PC, align 8
  store i64 %21, ptr %PC, align 8
  %22 = add i64 %21, 4
  store i64 %22, ptr %NEXT_PC, align 8
  %23 = load i64, ptr %RCX, align 8
  %24 = add i64 %23, 24
  %25 = load i64, ptr %RAX, align 8
  %26 = load ptr, ptr %MEMORY, align 8
  %27 = call ptr @_ZN12_GLOBAL__N_13MOVI3MnWImE2RnImLb1EEEEP6MemoryS6_R5StateT_T0_(ptr %26, ptr %state, i64 %24, i64 %25)
  store ptr %27, ptr %MEMORY, align 8
  %28 = load i64, ptr %NEXT_PC, align 8
  store i64 %28, ptr %PC, align 8
  %29 = add i64 %28, 4
  store i64 %29, ptr %NEXT_PC, align 8
  %30 = load i64, ptr %RSP, align 8
  %31 = add i64 %30, 64
  %32 = load ptr, ptr %MEMORY, align 8
  %33 = call ptr @_ZN12_GLOBAL__N_13MOVI3RnWImE2MnIjEEEP6MemoryS6_R5StateT_T0_(ptr %32, ptr %state, ptr %RAX, i64 %31)
  store ptr %33, ptr %MEMORY, align 8
  %34 = load i64, ptr %NEXT_PC, align 8
  store i64 %34, ptr %PC, align 8
  %35 = add i64 %34, 3
  store i64 %35, ptr %NEXT_PC, align 8
  %36 = load i64, ptr %RCX, align 8
  %37 = add i64 %36, 32
  %38 = load i32, ptr %EAX, align 4
  %39 = zext i32 %38 to i64
  %40 = load ptr, ptr %MEMORY, align 8
  %41 = call ptr @_ZN12_GLOBAL__N_13MOVI3MnWIjE2RnIjLb1EEEEP6MemoryS6_R5StateT_T0_(ptr %40, ptr %state, i64 %37, i64 %39)
  store ptr %41, ptr %MEMORY, align 8
  %42 = load i64, ptr %NEXT_PC, align 8
  store i64 %42, ptr %PC, align 8
  %43 = add i64 %42, 5
  store i64 %43, ptr %NEXT_PC, align 8
  %44 = load i64, ptr %RSP, align 8
  %45 = add i64 %44, 72
  %46 = load ptr, ptr %MEMORY, align 8
  %47 = call ptr @_ZN12_GLOBAL__N_13MOVI3RnWImE2MnImEEEP6MemoryS6_R5StateT_T0_(ptr %46, ptr %state, ptr %RAX, i64 %45)
  store ptr %47, ptr %MEMORY, align 8
  %48 = load i64, ptr %NEXT_PC, align 8
  store i64 %48, ptr %PC, align 8
  %49 = add i64 %48, 4
  store i64 %49, ptr %NEXT_PC, align 8
  %50 = load i64, ptr %RCX, align 8
  %51 = add i64 %50, 40
  %52 = load i64, ptr %RAX, align 8
  %53 = load ptr, ptr %MEMORY, align 8
  %54 = call ptr @_ZN12_GLOBAL__N_13MOVI3MnWImE2RnImLb1EEEEP6MemoryS6_R5StateT_T0_(ptr %53, ptr %state, i64 %51, i64 %52)
  store ptr %54, ptr %MEMORY, align 8
  %55 = load i64, ptr %NEXT_PC, align 8
  store i64 %55, ptr %PC, align 8
  %56 = add i64 %55, 4
  store i64 %56, ptr %NEXT_PC, align 8
  %57 = load i64, ptr %RSP, align 8
  %58 = add i64 %57, 80
  %59 = load ptr, ptr %MEMORY, align 8
  %60 = call ptr @_ZN12_GLOBAL__N_13MOVI3RnWImE2MnIjEEEP6MemoryS6_R5StateT_T0_(ptr %59, ptr %state, ptr %RAX, i64 %58)
  store ptr %60, ptr %MEMORY, align 8
  %61 = load i64, ptr %NEXT_PC, align 8
  store i64 %61, ptr %PC, align 8
  %62 = add i64 %61, 3
  store i64 %62, ptr %NEXT_PC, align 8
  %63 = load i64, ptr %RCX, align 8
  %64 = add i64 %63, 48
  %65 = load i32, ptr %EAX, align 4
  %66 = zext i32 %65 to i64
  %67 = load ptr, ptr %MEMORY, align 8
  %68 = call ptr @_ZN12_GLOBAL__N_13MOVI3MnWIjE2RnIjLb1EEEEP6MemoryS6_R5StateT_T0_(ptr %67, ptr %state, i64 %64, i64 %66)
  store ptr %68, ptr %MEMORY, align 8
  %69 = load i64, ptr %NEXT_PC, align 8
  store i64 %69, ptr %PC, align 8
  %70 = add i64 %69, 5
  store i64 %70, ptr %NEXT_PC, align 8
  %71 = load i64, ptr %RSP, align 8
  %72 = add i64 %71, 88
  %73 = load ptr, ptr %MEMORY, align 8
  %74 = call ptr @_ZN12_GLOBAL__N_13MOVI3RnWImE2MnImEEEP6MemoryS6_R5StateT_T0_(ptr %73, ptr %state, ptr %RAX, i64 %72)
  store ptr %74, ptr %MEMORY, align 8
  %75 = load i64, ptr %NEXT_PC, align 8
  store i64 %75, ptr %PC, align 8
  %76 = add i64 %75, 4
  store i64 %76, ptr %NEXT_PC, align 8
  %77 = load i64, ptr %RCX, align 8
  %78 = add i64 %77, 56
  %79 = load i64, ptr %RAX, align 8
  %80 = load ptr, ptr %MEMORY, align 8
  %81 = call ptr @_ZN12_GLOBAL__N_13MOVI3MnWImE2RnImLb1EEEEP6MemoryS6_R5StateT_T0_(ptr %80, ptr %state, i64 %78, i64 %79)
  store ptr %81, ptr %MEMORY, align 8
  %82 = load i64, ptr %NEXT_PC, align 8
  store i64 %82, ptr %PC, align 8
  %83 = add i64 %82, 5
  store i64 %83, ptr %NEXT_PC, align 8
  %84 = load i64, ptr %RSP, align 8
  %85 = add i64 %84, 96
  %86 = load ptr, ptr %MEMORY, align 8
  %87 = call ptr @_ZN12_GLOBAL__N_13MOVI3RnWImE2MnImEEEP6MemoryS6_R5StateT_T0_(ptr %86, ptr %state, ptr %RAX, i64 %85)
  store ptr %87, ptr %MEMORY, align 8
  %88 = load i64, ptr %NEXT_PC, align 8
  store i64 %88, ptr %PC, align 8
  %89 = add i64 %88, 4
  store i64 %89, ptr %NEXT_PC, align 8
  %90 = load i64, ptr %RCX, align 8
  %91 = add i64 %90, 64
  %92 = load i64, ptr %RAX, align 8
  %93 = load ptr, ptr %MEMORY, align 8
  %94 = call ptr @_ZN12_GLOBAL__N_13MOVI3MnWImE2RnImLb1EEEEP6MemoryS6_R5StateT_T0_(ptr %93, ptr %state, i64 %91, i64 %92)
  store ptr %94, ptr %MEMORY, align 8
  %95 = load i64, ptr %NEXT_PC, align 8
  store i64 %95, ptr %PC, align 8
  %96 = add i64 %95, 4
  store i64 %96, ptr %NEXT_PC, align 8
  %97 = load i64, ptr %RSP, align 8
  %98 = add i64 %97, 104
  %99 = load ptr, ptr %MEMORY, align 8
  %100 = call ptr @_ZN12_GLOBAL__N_13MOVI3RnWImE2MnIjEEEP6MemoryS6_R5StateT_T0_(ptr %99, ptr %state, ptr %RAX, i64 %98)
  store ptr %100, ptr %MEMORY, align 8
  %101 = load i64, ptr %NEXT_PC, align 8
  store i64 %101, ptr %PC, align 8
  %102 = add i64 %101, 3
  store i64 %102, ptr %NEXT_PC, align 8
  %103 = load i64, ptr %RCX, align 8
  %104 = load i64, ptr %RDX, align 8
  %105 = load ptr, ptr %MEMORY, align 8
  %106 = call ptr @_ZN12_GLOBAL__N_13MOVI3MnWImE2RnImLb1EEEEP6MemoryS6_R5StateT_T0_(ptr %105, ptr %state, i64 %103, i64 %104)
  store ptr %106, ptr %MEMORY, align 8
  %107 = load i64, ptr %NEXT_PC, align 8
  store i64 %107, ptr %PC, align 8
  %108 = add i64 %107, 4
  store i64 %108, ptr %NEXT_PC, align 8
  %109 = load i64, ptr %RCX, align 8
  %110 = add i64 %109, 8
  %111 = load i64, ptr %R8, align 8
  %112 = load ptr, ptr %MEMORY, align 8
  %113 = call ptr @_ZN12_GLOBAL__N_13MOVI3MnWImE2RnImLb1EEEEP6MemoryS6_R5StateT_T0_(ptr %112, ptr %state, i64 %110, i64 %111)
  store ptr %113, ptr %MEMORY, align 8
  %114 = load i64, ptr %NEXT_PC, align 8
  store i64 %114, ptr %PC, align 8
  %115 = add i64 %114, 4
  store i64 %115, ptr %NEXT_PC, align 8
  %116 = load i64, ptr %RCX, align 8
  %117 = add i64 %116, 16
  %118 = load i32, ptr %R9D, align 4
  %119 = zext i32 %118 to i64
  %120 = load ptr, ptr %MEMORY, align 8
  %121 = call ptr @_ZN12_GLOBAL__N_13MOVI3MnWIjE2RnIjLb1EEEEP6MemoryS6_R5StateT_T0_(ptr %120, ptr %state, i64 %117, i64 %119)
  store ptr %121, ptr %MEMORY, align 8
  %122 = load i64, ptr %NEXT_PC, align 8
  store i64 %122, ptr %PC, align 8
  %123 = add i64 %122, 3
  store i64 %123, ptr %NEXT_PC, align 8
  %124 = load i64, ptr %RCX, align 8
  %125 = add i64 %124, 72
  %126 = load i32, ptr %EAX, align 4
  %127 = zext i32 %126 to i64
  %128 = load ptr, ptr %MEMORY, align 8
  %129 = call ptr @_ZN12_GLOBAL__N_13MOVI3MnWIjE2RnIjLb1EEEEP6MemoryS6_R5StateT_T0_(ptr %128, ptr %state, i64 %125, i64 %127)
  store ptr %129, ptr %MEMORY, align 8
  %130 = load i64, ptr %NEXT_PC, align 8
  store i64 %130, ptr %PC, align 8
  %131 = add i64 %130, 4
  store i64 %131, ptr %NEXT_PC, align 8
  %132 = load i64, ptr %RSP, align 8
  %133 = add i64 %132, 112
  %134 = load ptr, ptr %MEMORY, align 8
  %135 = call ptr @_ZN12_GLOBAL__N_13MOVI3RnWImE2MnIjEEEP6MemoryS6_R5StateT_T0_(ptr %134, ptr %state, ptr %RAX, i64 %133)
  store ptr %135, ptr %MEMORY, align 8
  %136 = load i64, ptr %NEXT_PC, align 8
  store i64 %136, ptr %PC, align 8
  %137 = add i64 %136, 3
  store i64 %137, ptr %NEXT_PC, align 8
  %138 = load i64, ptr %RCX, align 8
  %139 = add i64 %138, 76
  %140 = load i32, ptr %EAX, align 4
  %141 = zext i32 %140 to i64
  %142 = load ptr, ptr %MEMORY, align 8
  %143 = call ptr @_ZN12_GLOBAL__N_13MOVI3MnWIjE2RnIjLb1EEEEP6MemoryS6_R5StateT_T0_(ptr %142, ptr %state, i64 %139, i64 %141)
  store ptr %143, ptr %MEMORY, align 8
  %144 = load i64, ptr %NEXT_PC, align 8
  store i64 %144, ptr %PC, align 8
  %145 = add i64 %144, 3
  store i64 %145, ptr %NEXT_PC, align 8
  %146 = load i64, ptr %RCX, align 8
  %147 = load ptr, ptr %MEMORY, align 8
  %148 = call ptr @_ZN12_GLOBAL__N_13MOVI3RnWImE2RnImLb1EEEEP6MemoryS6_R5StateT_T0_(ptr %147, ptr %state, ptr %RAX, i64 %146)
  store ptr %148, ptr %MEMORY, align 8
  %149 = load i64, ptr %NEXT_PC, align 8
  store i64 %149, ptr %PC, align 8
  %150 = add i64 %149, 1
  store i64 %150, ptr %NEXT_PC, align 8
  %151 = load ptr, ptr %MEMORY, align 8
  %152 = call ptr @_ZN12_GLOBAL__N_13RETEP6MemoryR5State3RnWImE(ptr %151, ptr %state, ptr %NEXT_PC)
  store ptr %152, ptr %MEMORY, align 8
  ret ptr %memory

bb_5395657910:                                    ; No predecessors!
  %153 = load i64, ptr %NEXT_PC, align 8
  store i64 %153, ptr %PC, align 8
  %154 = add i64 %153, 1
  store i64 %154, ptr %NEXT_PC, align 8
  %155 = load ptr, ptr %MEMORY, align 8
  %156 = call ptr @_ZN12_GLOBAL__N_16DoINT3EP6MemoryR5State3RnWImE(ptr %155, ptr %state, ptr undef)
  store ptr %156, ptr %MEMORY, align 8
  %157 = load i64, ptr %NEXT_PC, align 8
  store i64 %157, ptr %PC, align 8
  %158 = add i64 %157, 1
  store i64 %158, ptr %NEXT_PC, align 8
  %159 = load ptr, ptr %MEMORY, align 8
  %160 = call ptr @_ZN12_GLOBAL__N_16DoINT3EP6MemoryR5State3RnWImE(ptr %159, ptr %state, ptr undef)
  store ptr %160, ptr %MEMORY, align 8
  %161 = load i64, ptr %NEXT_PC, align 8
  store i64 %161, ptr %PC, align 8
  %162 = add i64 %161, 1
  store i64 %162, ptr %NEXT_PC, align 8
  %163 = load ptr, ptr %MEMORY, align 8
  %164 = call ptr @_ZN12_GLOBAL__N_16DoINT3EP6MemoryR5State3RnWImE(ptr %163, ptr %state, ptr undef)
  store ptr %164, ptr %MEMORY, align 8
  %165 = load i64, ptr %NEXT_PC, align 8
  store i64 %165, ptr %PC, align 8
  %166 = add i64 %165, 1
  store i64 %166, ptr %NEXT_PC, align 8
  %167 = load ptr, ptr %MEMORY, align 8
  %168 = call ptr @_ZN12_GLOBAL__N_16DoINT3EP6MemoryR5State3RnWImE(ptr %167, ptr %state, ptr undef)
  store ptr %168, ptr %MEMORY, align 8
  %169 = load i64, ptr %NEXT_PC, align 8
  store i64 %169, ptr %PC, align 8
  %170 = add i64 %169, 1
  store i64 %170, ptr %NEXT_PC, align 8
  %171 = load ptr, ptr %MEMORY, align 8
  %172 = call ptr @_ZN12_GLOBAL__N_16DoINT3EP6MemoryR5State3RnWImE(ptr %171, ptr %state, ptr undef)
  store ptr %172, ptr %MEMORY, align 8
  %173 = load i64, ptr %NEXT_PC, align 8
  store i64 %173, ptr %PC, align 8
  %174 = add i64 %173, 1
  store i64 %174, ptr %NEXT_PC, align 8
  %175 = load ptr, ptr %MEMORY, align 8
  %176 = call ptr @_ZN12_GLOBAL__N_16DoINT3EP6MemoryR5State3RnWImE(ptr %175, ptr %state, ptr undef)
  store ptr %176, ptr %MEMORY, align 8
  %177 = load i64, ptr %NEXT_PC, align 8
  store i64 %177, ptr %PC, align 8
  %178 = add i64 %177, 1
  store i64 %178, ptr %NEXT_PC, align 8
  %179 = load ptr, ptr %MEMORY, align 8
  %180 = call ptr @_ZN12_GLOBAL__N_16DoINT3EP6MemoryR5State3RnWImE(ptr %179, ptr %state, ptr undef)
  store ptr %180, ptr %MEMORY, align 8
  %181 = load i64, ptr %NEXT_PC, align 8
  store i64 %181, ptr %PC, align 8
  %182 = add i64 %181, 1
  store i64 %182, ptr %NEXT_PC, align 8
  %183 = load ptr, ptr %MEMORY, align 8
  %184 = call ptr @_ZN12_GLOBAL__N_16DoINT3EP6MemoryR5State3RnWImE(ptr %183, ptr %state, ptr undef)
  store ptr %184, ptr %MEMORY, align 8
  %185 = load i64, ptr %NEXT_PC, align 8
  store i64 %185, ptr %PC, align 8
  %186 = add i64 %185, 1
  store i64 %186, ptr %NEXT_PC, align 8
  %187 = load ptr, ptr %MEMORY, align 8
  %188 = call ptr @_ZN12_GLOBAL__N_16DoINT3EP6MemoryR5State3RnWImE(ptr %187, ptr %state, ptr undef)
  store ptr %188, ptr %MEMORY, align 8
  %189 = load i64, ptr %NEXT_PC, align 8
  store i64 %189, ptr %PC, align 8
  %190 = add i64 %189, 1
  store i64 %190, ptr %NEXT_PC, align 8
  %191 = load ptr, ptr %MEMORY, align 8
  %192 = call ptr @_ZN12_GLOBAL__N_16DoINT3EP6MemoryR5State3RnWImE(ptr %191, ptr %state, ptr undef)
  store ptr %192, ptr %MEMORY, align 8
  %193 = load i64, ptr %NEXT_PC, align 8
  store i64 %193, ptr %PC, align 8
  %194 = add i64 %193, 3
  store i64 %194, ptr %NEXT_PC, align 8
  %195 = load i64, ptr %RCX, align 8
  %196 = load ptr, ptr %MEMORY, align 8
  %197 = call ptr @_ZN12_GLOBAL__N_13MOVI3RnWImE2MnImEEEP6MemoryS6_R5StateT_T0_(ptr %196, ptr %state, ptr %RAX, i64 %195)
  store ptr %197, ptr %MEMORY, align 8
  %198 = load i64, ptr %NEXT_PC, align 8
  store i64 %198, ptr %PC, align 8
  %199 = add i64 %198, 1
  store i64 %199, ptr %NEXT_PC, align 8
  %200 = load ptr, ptr %MEMORY, align 8
  %201 = call ptr @_ZN12_GLOBAL__N_13RETEP6MemoryR5State3RnWImE(ptr %200, ptr %state, ptr %NEXT_PC)
  store ptr %201, ptr %MEMORY, align 8
  ret ptr %memory

bb_5395657924:                                    ; No predecessors!
  %202 = load i64, ptr %NEXT_PC, align 8
  store i64 %202, ptr %PC, align 8
  %203 = add i64 %202, 1
  store i64 %203, ptr %NEXT_PC, align 8
  %204 = load ptr, ptr %MEMORY, align 8
  %205 = call ptr @_ZN12_GLOBAL__N_16DoINT3EP6MemoryR5State3RnWImE(ptr %204, ptr %state, ptr undef)
  store ptr %205, ptr %MEMORY, align 8
  %206 = load i64, ptr %NEXT_PC, align 8
  store i64 %206, ptr %PC, align 8
  %207 = add i64 %206, 1
  store i64 %207, ptr %NEXT_PC, align 8
  %208 = load ptr, ptr %MEMORY, align 8
  %209 = call ptr @_ZN12_GLOBAL__N_16DoINT3EP6MemoryR5State3RnWImE(ptr %208, ptr %state, ptr undef)
  store ptr %209, ptr %MEMORY, align 8
  %210 = load i64, ptr %NEXT_PC, align 8
  store i64 %210, ptr %PC, align 8
  %211 = add i64 %210, 1
  store i64 %211, ptr %NEXT_PC, align 8
  %212 = load ptr, ptr %MEMORY, align 8
  %213 = call ptr @_ZN12_GLOBAL__N_16DoINT3EP6MemoryR5State3RnWImE(ptr %212, ptr %state, ptr undef)
  store ptr %213, ptr %MEMORY, align 8
  %214 = load i64, ptr %NEXT_PC, align 8
  store i64 %214, ptr %PC, align 8
  %215 = add i64 %214, 1
  store i64 %215, ptr %NEXT_PC, align 8
  %216 = load ptr, ptr %MEMORY, align 8
  %217 = call ptr @_ZN12_GLOBAL__N_16DoINT3EP6MemoryR5State3RnWImE(ptr %216, ptr %state, ptr undef)
  store ptr %217, ptr %MEMORY, align 8
  %218 = load i64, ptr %NEXT_PC, align 8
  store i64 %218, ptr %PC, align 8
  %219 = add i64 %218, 1
  store i64 %219, ptr %NEXT_PC, align 8
  %220 = load ptr, ptr %MEMORY, align 8
  %221 = call ptr @_ZN12_GLOBAL__N_16DoINT3EP6MemoryR5State3RnWImE(ptr %220, ptr %state, ptr undef)
  store ptr %221, ptr %MEMORY, align 8
  %222 = load i64, ptr %NEXT_PC, align 8
  store i64 %222, ptr %PC, align 8
  %223 = add i64 %222, 1
  store i64 %223, ptr %NEXT_PC, align 8
  %224 = load ptr, ptr %MEMORY, align 8
  %225 = call ptr @_ZN12_GLOBAL__N_16DoINT3EP6MemoryR5State3RnWImE(ptr %224, ptr %state, ptr undef)
  store ptr %225, ptr %MEMORY, align 8
  %226 = load i64, ptr %NEXT_PC, align 8
  store i64 %226, ptr %PC, align 8
  %227 = add i64 %226, 1
  store i64 %227, ptr %NEXT_PC, align 8
  %228 = load ptr, ptr %MEMORY, align 8
  %229 = call ptr @_ZN12_GLOBAL__N_16DoINT3EP6MemoryR5State3RnWImE(ptr %228, ptr %state, ptr undef)
  store ptr %229, ptr %MEMORY, align 8
  %230 = load i64, ptr %NEXT_PC, align 8
  store i64 %230, ptr %PC, align 8
  %231 = add i64 %230, 1
  store i64 %231, ptr %NEXT_PC, align 8
  %232 = load ptr, ptr %MEMORY, align 8
  %233 = call ptr @_ZN12_GLOBAL__N_16DoINT3EP6MemoryR5State3RnWImE(ptr %232, ptr %state, ptr undef)
  store ptr %233, ptr %MEMORY, align 8
  %234 = load i64, ptr %NEXT_PC, align 8
  store i64 %234, ptr %PC, align 8
  %235 = add i64 %234, 1
  store i64 %235, ptr %NEXT_PC, align 8
  %236 = load ptr, ptr %MEMORY, align 8
  %237 = call ptr @_ZN12_GLOBAL__N_16DoINT3EP6MemoryR5State3RnWImE(ptr %236, ptr %state, ptr undef)
  store ptr %237, ptr %MEMORY, align 8
  %238 = load i64, ptr %NEXT_PC, align 8
  store i64 %238, ptr %PC, align 8
  %239 = add i64 %238, 1
  store i64 %239, ptr %NEXT_PC, align 8
  %240 = load ptr, ptr %MEMORY, align 8
  %241 = call ptr @_ZN12_GLOBAL__N_16DoINT3EP6MemoryR5State3RnWImE(ptr %240, ptr %state, ptr undef)
  store ptr %241, ptr %MEMORY, align 8
  %242 = load i64, ptr %NEXT_PC, align 8
  store i64 %242, ptr %PC, align 8
  %243 = add i64 %242, 1
  store i64 %243, ptr %NEXT_PC, align 8
  %244 = load ptr, ptr %MEMORY, align 8
  %245 = call ptr @_ZN12_GLOBAL__N_16DoINT3EP6MemoryR5State3RnWImE(ptr %244, ptr %state, ptr undef)
  store ptr %245, ptr %MEMORY, align 8
  %246 = load i64, ptr %NEXT_PC, align 8
  store i64 %246, ptr %PC, align 8
  %247 = add i64 %246, 1
  store i64 %247, ptr %NEXT_PC, align 8
  %248 = load ptr, ptr %MEMORY, align 8
  %249 = call ptr @_ZN12_GLOBAL__N_16DoINT3EP6MemoryR5State3RnWImE(ptr %248, ptr %state, ptr undef)
  store ptr %249, ptr %MEMORY, align 8
  %250 = load i64, ptr %NEXT_PC, align 8
  store i64 %250, ptr %PC, align 8
  %251 = add i64 %250, 2
  store i64 %251, ptr %NEXT_PC, align 8
  %252 = load i64, ptr %RDI, align 8
  %253 = load ptr, ptr %MEMORY, align 8
  %254 = call ptr @_ZN12_GLOBAL__N_14PUSHI2InImEEEP6MemoryS4_R5StateT_(ptr %253, ptr %state, i64 %252)
  store ptr %254, ptr %MEMORY, align 8
  %255 = load i64, ptr %NEXT_PC, align 8
  store i64 %255, ptr %PC, align 8
  %256 = add i64 %255, 4
  store i64 %256, ptr %NEXT_PC, align 8
  %257 = load i64, ptr %RSP, align 8
  %258 = load ptr, ptr %MEMORY, align 8
  %259 = call ptr @_ZN12_GLOBAL__N_13SUBI3RnWImE2RnImLb1EE2InImEEEP6MemoryS8_R5StateT_T0_T1_(ptr %258, ptr %state, ptr %RSP, i64 %257, i64 32)
  store ptr %259, ptr %MEMORY, align 8
  %260 = load i64, ptr %NEXT_PC, align 8
  store i64 %260, ptr %PC, align 8
  %261 = add i64 %260, 3
  store i64 %261, ptr %NEXT_PC, align 8
  %262 = load i64, ptr %RCX, align 8
  %263 = load ptr, ptr %MEMORY, align 8
  %264 = call ptr @_ZN12_GLOBAL__N_13MOVI3RnWImE2RnImLb1EEEEP6MemoryS6_R5StateT_T0_(ptr %263, ptr %state, ptr %RDI, i64 %262)
  store ptr %264, ptr %MEMORY, align 8
  %265 = load i64, ptr %NEXT_PC, align 8
  store i64 %265, ptr %PC, align 8
  %266 = add i64 %265, 3
  store i64 %266, ptr %NEXT_PC, align 8
  %267 = load i64, ptr %RDX, align 8
  %268 = load i64, ptr %RDX, align 8
  %269 = load ptr, ptr %MEMORY, align 8
  %270 = call ptr @_ZN12_GLOBAL__N_14TESTI2RnImLb1EES2_EEP6MemoryS4_R5StateT_T0_(ptr %269, ptr %state, i64 %267, i64 %268)
  store ptr %270, ptr %MEMORY, align 8
  %271 = load i64, ptr %NEXT_PC, align 8
  store i64 %271, ptr %PC, align 8
  %272 = add i64 %271, 2
  store i64 %272, ptr %NEXT_PC, align 8
  %273 = load i64, ptr %NEXT_PC, align 8
  %274 = add i64 %273, 8
  %275 = load i64, ptr %NEXT_PC, align 8
  %276 = load ptr, ptr %MEMORY, align 8
  %277 = call ptr @_ZN12_GLOBAL__N_13JNZEP6MemoryR5State3RnWIhE2InImES7_S4_ImE(ptr %276, ptr %state, ptr %BRANCH_TAKEN, i64 %274, i64 %275, ptr %NEXT_PC)
  store ptr %277, ptr %MEMORY, align 8
  br i1 true, label %bb_5395657958, label %bb_5395657950

bb_5395657950:                                    ; preds = %bb_5395657924
  %278 = load i64, ptr %NEXT_PC, align 8
  store i64 %278, ptr %PC, align 8
  %279 = add i64 %278, 2
  store i64 %279, ptr %NEXT_PC, align 8
  %280 = load i8, ptr %AL, align 1
  %281 = zext i8 %280 to i64
  %282 = load i8, ptr %AL, align 1
  %283 = zext i8 %282 to i64
  %284 = load ptr, ptr %MEMORY, align 8
  %285 = call ptr @_ZN12_GLOBAL__N_13XORI3RnWIhE2RnIhLb1EES4_EEP6MemoryS6_R5StateT_T0_T1_(ptr %284, ptr %state, ptr %AL, i64 %281, i64 %283)
  store ptr %285, ptr %MEMORY, align 8
  %286 = load i64, ptr %NEXT_PC, align 8
  store i64 %286, ptr %PC, align 8
  %287 = add i64 %286, 4
  store i64 %287, ptr %NEXT_PC, align 8
  %288 = load i64, ptr %RSP, align 8
  %289 = load ptr, ptr %MEMORY, align 8
  %290 = call ptr @_ZN12_GLOBAL__N_13ADDI3RnWImE2RnImLb1EE2InImEEEP6MemoryS8_R5StateT_T0_T1_(ptr %289, ptr %state, ptr %RSP, i64 %288, i64 32)
  store ptr %290, ptr %MEMORY, align 8
  %291 = load i64, ptr %NEXT_PC, align 8
  store i64 %291, ptr %PC, align 8
  %292 = add i64 %291, 1
  store i64 %292, ptr %NEXT_PC, align 8
  %293 = load ptr, ptr %MEMORY, align 8
  %294 = call ptr @_ZN12_GLOBAL__N_13POPI3RnWImEEEP6MemoryS4_R5StateT_(ptr %293, ptr %state, ptr %RDI)
  store ptr %294, ptr %MEMORY, align 8
  %295 = load i64, ptr %NEXT_PC, align 8
  store i64 %295, ptr %PC, align 8
  %296 = add i64 %295, 1
  store i64 %296, ptr %NEXT_PC, align 8
  %297 = load ptr, ptr %MEMORY, align 8
  %298 = call ptr @_ZN12_GLOBAL__N_13RETEP6MemoryR5State3RnWImE(ptr %297, ptr %state, ptr %NEXT_PC)
  store ptr %298, ptr %MEMORY, align 8
  ret ptr %memory

bb_5395657958:                                    ; preds = %bb_5395657924
  %299 = load i64, ptr %NEXT_PC, align 8
  store i64 %299, ptr %PC, align 8
  %300 = add i64 %299, 3
  store i64 %300, ptr %NEXT_PC, align 8
  %301 = load i64, ptr %RDI, align 8
  %302 = load i64, ptr %RDX, align 8
  %303 = load ptr, ptr %MEMORY, align 8
  %304 = call ptr @_ZN12_GLOBAL__N_13CMPI2RnImLb1EES2_EEP6MemoryS4_R5StateT_T0_(ptr %303, ptr %state, i64 %301, i64 %302)
  store ptr %304, ptr %MEMORY, align 8
  %305 = load i64, ptr %NEXT_PC, align 8
  store i64 %305, ptr %PC, align 8
  %306 = add i64 %305, 2
  store i64 %306, ptr %NEXT_PC, align 8
  %307 = load i64, ptr %NEXT_PC, align 8
  %308 = add i64 %307, 52
  %309 = load i64, ptr %NEXT_PC, align 8
  %310 = load ptr, ptr %MEMORY, align 8
  %311 = call ptr @_ZN12_GLOBAL__N_12JZEP6MemoryR5State3RnWIhE2InImES7_S4_ImE(ptr %310, ptr %state, ptr %BRANCH_TAKEN, i64 %308, i64 %309, ptr %NEXT_PC)
  store ptr %311, ptr %MEMORY, align 8
  br i1 true, label %bb_5395658015, label %bb_5395657963

bb_5395657963:                                    ; preds = %bb_5395657958
  %312 = load i64, ptr %NEXT_PC, align 8
  store i64 %312, ptr %PC, align 8
  %313 = add i64 %312, 3
  store i64 %313, ptr %NEXT_PC, align 8
  %314 = load i64, ptr %RDX, align 8
  %315 = load ptr, ptr %MEMORY, align 8
  %316 = call ptr @_ZN12_GLOBAL__N_13MOVI3RnWImE2RnImLb1EEEEP6MemoryS6_R5StateT_T0_(ptr %315, ptr %state, ptr %RCX, i64 %314)
  store ptr %316, ptr %MEMORY, align 8
  %317 = load i64, ptr %NEXT_PC, align 8
  store i64 %317, ptr %PC, align 8
  %318 = add i64 %317, 5
  store i64 %318, ptr %NEXT_PC, align 8
  %319 = load i64, ptr %RSP, align 8
  %320 = add i64 %319, 48
  %321 = load i64, ptr %RBX, align 8
  %322 = load ptr, ptr %MEMORY, align 8
  %323 = call ptr @_ZN12_GLOBAL__N_13MOVI3MnWImE2RnImLb1EEEEP6MemoryS6_R5StateT_T0_(ptr %322, ptr %state, i64 %320, i64 %321)
  store ptr %323, ptr %MEMORY, align 8
  %324 = load i64, ptr %NEXT_PC, align 8
  store i64 %324, ptr %PC, align 8
  %325 = add i64 %324, 5
  store i64 %325, ptr %NEXT_PC, align 8
  %326 = load i64, ptr %NEXT_PC, align 8
  %327 = sub i64 %326, 56
  %328 = load i64, ptr %NEXT_PC, align 8
  %329 = load ptr, ptr %MEMORY, align 8
  %330 = call ptr @_ZN12_GLOBAL__N_14CALLI2InImEEEP6MemoryS4_R5StateT_3RnWImES2_S9_(ptr %329, ptr %state, i64 %327, ptr %NEXT_PC, i64 %328, ptr %RETURN_PC)
  store ptr %330, ptr %MEMORY, align 8
  %331 = load i64, ptr %NEXT_PC, align 8
  store i64 %331, ptr %PC, align 8
  %332 = add i64 %331, 3
  store i64 %332, ptr %NEXT_PC, align 8
  %333 = load i64, ptr %RDI, align 8
  %334 = load ptr, ptr %MEMORY, align 8
  %335 = call ptr @_ZN12_GLOBAL__N_13MOVI3RnWImE2RnImLb1EEEEP6MemoryS6_R5StateT_T0_(ptr %334, ptr %state, ptr %RCX, i64 %333)
  store ptr %335, ptr %MEMORY, align 8
  %336 = load i64, ptr %NEXT_PC, align 8
  store i64 %336, ptr %PC, align 8
  %337 = add i64 %336, 3
  store i64 %337, ptr %NEXT_PC, align 8
  %338 = load i64, ptr %RAX, align 8
  %339 = load ptr, ptr %MEMORY, align 8
  %340 = call ptr @_ZN12_GLOBAL__N_13MOVI3RnWImE2RnImLb1EEEEP6MemoryS6_R5StateT_T0_(ptr %339, ptr %state, ptr %RBX, i64 %338)
  store ptr %340, ptr %MEMORY, align 8
  %341 = load i64, ptr %NEXT_PC, align 8
  store i64 %341, ptr %PC, align 8
  %342 = add i64 %341, 5
  store i64 %342, ptr %NEXT_PC, align 8
  %343 = load i64, ptr %NEXT_PC, align 8
  %344 = sub i64 %343, 67
  %345 = load i64, ptr %NEXT_PC, align 8
  %346 = load ptr, ptr %MEMORY, align 8
  %347 = call ptr @_ZN12_GLOBAL__N_14CALLI2InImEEEP6MemoryS4_R5StateT_3RnWImES2_S9_(ptr %346, ptr %state, i64 %344, ptr %NEXT_PC, i64 %345, ptr %RETURN_PC)
  store ptr %347, ptr %MEMORY, align 8
  %348 = load i64, ptr %NEXT_PC, align 8
  store i64 %348, ptr %PC, align 8
  %349 = add i64 %348, 3
  store i64 %349, ptr %NEXT_PC, align 8
  %350 = load i64, ptr %RAX, align 8
  %351 = load ptr, ptr %MEMORY, align 8
  %352 = call ptr @_ZN12_GLOBAL__N_13MOVI3RnWImE2RnImLb1EEEEP6MemoryS6_R5StateT_T0_(ptr %351, ptr %state, ptr %RCX, i64 %350)
  store ptr %352, ptr %MEMORY, align 8
  %353 = load i64, ptr %NEXT_PC, align 8
  store i64 %353, ptr %PC, align 8
  %354 = add i64 %353, 3
  store i64 %354, ptr %NEXT_PC, align 8
  %355 = load i64, ptr %RBX, align 8
  %356 = load ptr, ptr %MEMORY, align 8
  %357 = call ptr @_ZN12_GLOBAL__N_13MOVI3RnWImE2RnImLb1EEEEP6MemoryS6_R5StateT_T0_(ptr %356, ptr %state, ptr %RDX, i64 %355)
  store ptr %357, ptr %MEMORY, align 8
  %358 = load i64, ptr %NEXT_PC, align 8
  store i64 %358, ptr %PC, align 8
  %359 = add i64 %358, 5
  store i64 %359, ptr %NEXT_PC, align 8
  %360 = load i64, ptr %NEXT_PC, align 8
  %361 = add i64 %360, 46322
  %362 = load i64, ptr %NEXT_PC, align 8
  %363 = load ptr, ptr %MEMORY, align 8
  %364 = call ptr @_ZN12_GLOBAL__N_14CALLI2InImEEEP6MemoryS4_R5StateT_3RnWImES2_S9_(ptr %363, ptr %state, i64 %361, ptr %NEXT_PC, i64 %362, ptr %RETURN_PC)
  store ptr %364, ptr %MEMORY, align 8
  %365 = load i64, ptr %NEXT_PC, align 8
  store i64 %365, ptr %PC, align 8
  %366 = add i64 %365, 5
  store i64 %366, ptr %NEXT_PC, align 8
  %367 = load i64, ptr %RSP, align 8
  %368 = add i64 %367, 48
  %369 = load ptr, ptr %MEMORY, align 8
  %370 = call ptr @_ZN12_GLOBAL__N_13MOVI3RnWImE2MnImEEEP6MemoryS6_R5StateT_T0_(ptr %369, ptr %state, ptr %RBX, i64 %368)
  store ptr %370, ptr %MEMORY, align 8
  %371 = load i64, ptr %NEXT_PC, align 8
  store i64 %371, ptr %PC, align 8
  %372 = add i64 %371, 2
  store i64 %372, ptr %NEXT_PC, align 8
  %373 = load i32, ptr %EAX, align 4
  %374 = zext i32 %373 to i64
  %375 = load i32, ptr %EAX, align 4
  %376 = zext i32 %375 to i64
  %377 = load ptr, ptr %MEMORY, align 8
  %378 = call ptr @_ZN12_GLOBAL__N_14TESTI2RnIjLb1EES2_EEP6MemoryS4_R5StateT_T0_(ptr %377, ptr %state, i64 %374, i64 %376)
  store ptr %378, ptr %MEMORY, align 8
  %379 = load i64, ptr %NEXT_PC, align 8
  store i64 %379, ptr %PC, align 8
  %380 = add i64 %379, 2
  store i64 %380, ptr %NEXT_PC, align 8
  %381 = load i64, ptr %NEXT_PC, align 8
  %382 = add i64 %381, 8
  %383 = load i64, ptr %NEXT_PC, align 8
  %384 = load ptr, ptr %MEMORY, align 8
  %385 = call ptr @_ZN12_GLOBAL__N_12JZEP6MemoryR5State3RnWIhE2InImES7_S4_ImE(ptr %384, ptr %state, ptr %BRANCH_TAKEN, i64 %382, i64 %383, ptr %NEXT_PC)
  store ptr %385, ptr %MEMORY, align 8
  br i1 true, label %bb_5395658015, label %bb_5395658007

bb_5395658007:                                    ; preds = %bb_5395657963
  %386 = load i64, ptr %NEXT_PC, align 8
  store i64 %386, ptr %PC, align 8
  %387 = add i64 %386, 2
  store i64 %387, ptr %NEXT_PC, align 8
  %388 = load i64, ptr %RAX, align 8
  %389 = load i32, ptr %EAX, align 4
  %390 = zext i32 %389 to i64
  %391 = load ptr, ptr %MEMORY, align 8
  %392 = call ptr @_ZN12_GLOBAL__N_13XORI3RnWImE2RnIjLb1EES4_EEP6MemoryS6_R5StateT_T0_T1_(ptr %391, ptr %state, ptr %RAX, i64 %388, i64 %390)
  store ptr %392, ptr %MEMORY, align 8
  %393 = load i64, ptr %NEXT_PC, align 8
  store i64 %393, ptr %PC, align 8
  %394 = add i64 %393, 4
  store i64 %394, ptr %NEXT_PC, align 8
  %395 = load i64, ptr %RSP, align 8
  %396 = load ptr, ptr %MEMORY, align 8
  %397 = call ptr @_ZN12_GLOBAL__N_13ADDI3RnWImE2RnImLb1EE2InImEEEP6MemoryS8_R5StateT_T0_T1_(ptr %396, ptr %state, ptr %RSP, i64 %395, i64 32)
  store ptr %397, ptr %MEMORY, align 8
  %398 = load i64, ptr %NEXT_PC, align 8
  store i64 %398, ptr %PC, align 8
  %399 = add i64 %398, 1
  store i64 %399, ptr %NEXT_PC, align 8
  %400 = load ptr, ptr %MEMORY, align 8
  %401 = call ptr @_ZN12_GLOBAL__N_13POPI3RnWImEEEP6MemoryS4_R5StateT_(ptr %400, ptr %state, ptr %RDI)
  store ptr %401, ptr %MEMORY, align 8
  %402 = load i64, ptr %NEXT_PC, align 8
  store i64 %402, ptr %PC, align 8
  %403 = add i64 %402, 1
  store i64 %403, ptr %NEXT_PC, align 8
  %404 = load ptr, ptr %MEMORY, align 8
  %405 = call ptr @_ZN12_GLOBAL__N_13RETEP6MemoryR5State3RnWImE(ptr %404, ptr %state, ptr %NEXT_PC)
  store ptr %405, ptr %MEMORY, align 8
  ret ptr %memory

bb_5395658015:                                    ; preds = %bb_5395657963, %bb_5395657958
  %406 = load i64, ptr %NEXT_PC, align 8
  store i64 %406, ptr %PC, align 8
  %407 = add i64 %406, 5
  store i64 %407, ptr %NEXT_PC, align 8
  %408 = load ptr, ptr %MEMORY, align 8
  %409 = call ptr @_ZN12_GLOBAL__N_13MOVI3RnWImE2InIjEEEP6MemoryS6_R5StateT_T0_(ptr %408, ptr %state, ptr %RAX, i64 1)
  store ptr %409, ptr %MEMORY, align 8
  %410 = load i64, ptr %NEXT_PC, align 8
  store i64 %410, ptr %PC, align 8
  %411 = add i64 %410, 4
  store i64 %411, ptr %NEXT_PC, align 8
  %412 = load i64, ptr %RSP, align 8
  %413 = load ptr, ptr %MEMORY, align 8
  %414 = call ptr @_ZN12_GLOBAL__N_13ADDI3RnWImE2RnImLb1EE2InImEEEP6MemoryS8_R5StateT_T0_T1_(ptr %413, ptr %state, ptr %RSP, i64 %412, i64 32)
  store ptr %414, ptr %MEMORY, align 8
  %415 = load i64, ptr %NEXT_PC, align 8
  store i64 %415, ptr %PC, align 8
  %416 = add i64 %415, 1
  store i64 %416, ptr %NEXT_PC, align 8
  %417 = load ptr, ptr %MEMORY, align 8
  %418 = call ptr @_ZN12_GLOBAL__N_13POPI3RnWImEEEP6MemoryS4_R5StateT_(ptr %417, ptr %state, ptr %RDI)
  store ptr %418, ptr %MEMORY, align 8
  %419 = load i64, ptr %NEXT_PC, align 8
  store i64 %419, ptr %PC, align 8
  %420 = add i64 %419, 1
  store i64 %420, ptr %NEXT_PC, align 8
  %421 = load ptr, ptr %MEMORY, align 8
  %422 = call ptr @_ZN12_GLOBAL__N_13RETEP6MemoryR5State3RnWImE(ptr %421, ptr %state, ptr %NEXT_PC)
  store ptr %422, ptr %MEMORY, align 8
  ret ptr %memory

bb_5395658026:                                    ; No predecessors!
  %423 = load i64, ptr %NEXT_PC, align 8
  store i64 %423, ptr %PC, align 8
  %424 = add i64 %423, 1
  store i64 %424, ptr %NEXT_PC, align 8
  %425 = load ptr, ptr %MEMORY, align 8
  %426 = call ptr @_ZN12_GLOBAL__N_16DoINT3EP6MemoryR5State3RnWImE(ptr %425, ptr %state, ptr undef)
  store ptr %426, ptr %MEMORY, align 8
  %427 = load i64, ptr %NEXT_PC, align 8
  store i64 %427, ptr %PC, align 8
  %428 = add i64 %427, 1
  store i64 %428, ptr %NEXT_PC, align 8
  %429 = load ptr, ptr %MEMORY, align 8
  %430 = call ptr @_ZN12_GLOBAL__N_16DoINT3EP6MemoryR5State3RnWImE(ptr %429, ptr %state, ptr undef)
  store ptr %430, ptr %MEMORY, align 8
  %431 = load i64, ptr %NEXT_PC, align 8
  store i64 %431, ptr %PC, align 8
  %432 = add i64 %431, 1
  store i64 %432, ptr %NEXT_PC, align 8
  %433 = load ptr, ptr %MEMORY, align 8
  %434 = call ptr @_ZN12_GLOBAL__N_16DoINT3EP6MemoryR5State3RnWImE(ptr %433, ptr %state, ptr undef)
  store ptr %434, ptr %MEMORY, align 8
  %435 = load i64, ptr %NEXT_PC, align 8
  store i64 %435, ptr %PC, align 8
  %436 = add i64 %435, 1
  store i64 %436, ptr %NEXT_PC, align 8
  %437 = load ptr, ptr %MEMORY, align 8
  %438 = call ptr @_ZN12_GLOBAL__N_16DoINT3EP6MemoryR5State3RnWImE(ptr %437, ptr %state, ptr undef)
  store ptr %438, ptr %MEMORY, align 8
  %439 = load i64, ptr %NEXT_PC, align 8
  store i64 %439, ptr %PC, align 8
  %440 = add i64 %439, 1
  store i64 %440, ptr %NEXT_PC, align 8
  %441 = load ptr, ptr %MEMORY, align 8
  %442 = call ptr @_ZN12_GLOBAL__N_16DoINT3EP6MemoryR5State3RnWImE(ptr %441, ptr %state, ptr undef)
  store ptr %442, ptr %MEMORY, align 8
  %443 = load i64, ptr %NEXT_PC, align 8
  store i64 %443, ptr %PC, align 8
  %444 = add i64 %443, 1
  store i64 %444, ptr %NEXT_PC, align 8
  %445 = load ptr, ptr %MEMORY, align 8
  %446 = call ptr @_ZN12_GLOBAL__N_16DoINT3EP6MemoryR5State3RnWImE(ptr %445, ptr %state, ptr undef)
  store ptr %446, ptr %MEMORY, align 8
  %447 = load i64, ptr %NEXT_PC, align 8
  store i64 %447, ptr %PC, align 8
  %448 = add i64 %447, 4
  store i64 %448, ptr %NEXT_PC, align 8
  %449 = load i64, ptr %RCX, align 8
  %450 = add i64 %449, 8
  %451 = load ptr, ptr %MEMORY, align 8
  %452 = call ptr @_ZN12_GLOBAL__N_13MOVI3RnWImE2MnImEEEP6MemoryS6_R5StateT_T0_(ptr %451, ptr %state, ptr %RAX, i64 %450)
  store ptr %452, ptr %MEMORY, align 8
  %453 = load i64, ptr %NEXT_PC, align 8
  store i64 %453, ptr %PC, align 8
  %454 = add i64 %453, 1
  store i64 %454, ptr %NEXT_PC, align 8
  %455 = load ptr, ptr %MEMORY, align 8
  %456 = call ptr @_ZN12_GLOBAL__N_13RETEP6MemoryR5State3RnWImE(ptr %455, ptr %state, ptr %NEXT_PC)
  store ptr %456, ptr %MEMORY, align 8
  ret ptr %memory

bb_5395658037:                                    ; No predecessors!
  %457 = load i64, ptr %NEXT_PC, align 8
  store i64 %457, ptr %PC, align 8
  %458 = add i64 %457, 1
  store i64 %458, ptr %NEXT_PC, align 8
  %459 = load ptr, ptr %MEMORY, align 8
  %460 = call ptr @_ZN12_GLOBAL__N_16DoINT3EP6MemoryR5State3RnWImE(ptr %459, ptr %state, ptr undef)
  store ptr %460, ptr %MEMORY, align 8
  %461 = load i64, ptr %NEXT_PC, align 8
  store i64 %461, ptr %PC, align 8
  %462 = add i64 %461, 1
  store i64 %462, ptr %NEXT_PC, align 8
  %463 = load ptr, ptr %MEMORY, align 8
  %464 = call ptr @_ZN12_GLOBAL__N_16DoINT3EP6MemoryR5State3RnWImE(ptr %463, ptr %state, ptr undef)
  store ptr %464, ptr %MEMORY, align 8
  %465 = load i64, ptr %NEXT_PC, align 8
  store i64 %465, ptr %PC, align 8
  %466 = add i64 %465, 1
  store i64 %466, ptr %NEXT_PC, align 8
  %467 = load ptr, ptr %MEMORY, align 8
  %468 = call ptr @_ZN12_GLOBAL__N_16DoINT3EP6MemoryR5State3RnWImE(ptr %467, ptr %state, ptr undef)
  store ptr %468, ptr %MEMORY, align 8
  %469 = load i64, ptr %NEXT_PC, align 8
  store i64 %469, ptr %PC, align 8
  %470 = add i64 %469, 1
  store i64 %470, ptr %NEXT_PC, align 8
  %471 = load ptr, ptr %MEMORY, align 8
  %472 = call ptr @_ZN12_GLOBAL__N_16DoINT3EP6MemoryR5State3RnWImE(ptr %471, ptr %state, ptr undef)
  store ptr %472, ptr %MEMORY, align 8
  %473 = load i64, ptr %NEXT_PC, align 8
  store i64 %473, ptr %PC, align 8
  %474 = add i64 %473, 1
  store i64 %474, ptr %NEXT_PC, align 8
  %475 = load ptr, ptr %MEMORY, align 8
  %476 = call ptr @_ZN12_GLOBAL__N_16DoINT3EP6MemoryR5State3RnWImE(ptr %475, ptr %state, ptr undef)
  store ptr %476, ptr %MEMORY, align 8
  %477 = load i64, ptr %NEXT_PC, align 8
  store i64 %477, ptr %PC, align 8
  %478 = add i64 %477, 1
  store i64 %478, ptr %NEXT_PC, align 8
  %479 = load ptr, ptr %MEMORY, align 8
  %480 = call ptr @_ZN12_GLOBAL__N_16DoINT3EP6MemoryR5State3RnWImE(ptr %479, ptr %state, ptr undef)
  store ptr %480, ptr %MEMORY, align 8
  %481 = load i64, ptr %NEXT_PC, align 8
  store i64 %481, ptr %PC, align 8
  %482 = add i64 %481, 1
  store i64 %482, ptr %NEXT_PC, align 8
  %483 = load ptr, ptr %MEMORY, align 8
  %484 = call ptr @_ZN12_GLOBAL__N_16DoINT3EP6MemoryR5State3RnWImE(ptr %483, ptr %state, ptr undef)
  store ptr %484, ptr %MEMORY, align 8
  %485 = load i64, ptr %NEXT_PC, align 8
  store i64 %485, ptr %PC, align 8
  %486 = add i64 %485, 1
  store i64 %486, ptr %NEXT_PC, align 8
  %487 = load ptr, ptr %MEMORY, align 8
  %488 = call ptr @_ZN12_GLOBAL__N_16DoINT3EP6MemoryR5State3RnWImE(ptr %487, ptr %state, ptr undef)
  store ptr %488, ptr %MEMORY, align 8
  %489 = load i64, ptr %NEXT_PC, align 8
  store i64 %489, ptr %PC, align 8
  %490 = add i64 %489, 1
  store i64 %490, ptr %NEXT_PC, align 8
  %491 = load ptr, ptr %MEMORY, align 8
  %492 = call ptr @_ZN12_GLOBAL__N_16DoINT3EP6MemoryR5State3RnWImE(ptr %491, ptr %state, ptr undef)
  store ptr %492, ptr %MEMORY, align 8
  %493 = load i64, ptr %NEXT_PC, align 8
  store i64 %493, ptr %PC, align 8
  %494 = add i64 %493, 1
  store i64 %494, ptr %NEXT_PC, align 8
  %495 = load ptr, ptr %MEMORY, align 8
  %496 = call ptr @_ZN12_GLOBAL__N_16DoINT3EP6MemoryR5State3RnWImE(ptr %495, ptr %state, ptr undef)
  store ptr %496, ptr %MEMORY, align 8
  %497 = load i64, ptr %NEXT_PC, align 8
  store i64 %497, ptr %PC, align 8
  %498 = add i64 %497, 1
  store i64 %498, ptr %NEXT_PC, align 8
  %499 = load ptr, ptr %MEMORY, align 8
  %500 = call ptr @_ZN12_GLOBAL__N_16DoINT3EP6MemoryR5State3RnWImE(ptr %499, ptr %state, ptr undef)
  store ptr %500, ptr %MEMORY, align 8
  %501 = load i64, ptr %NEXT_PC, align 8
  store i64 %501, ptr %PC, align 8
  %502 = add i64 %501, 4
  store i64 %502, ptr %NEXT_PC, align 8
  %503 = load i64, ptr %RCX, align 8
  %504 = add i64 %503, 8
  %505 = load ptr, ptr %MEMORY, align 8
  %506 = call ptr @_ZN12_GLOBAL__N_13MOVI3RnWImE2MnImEEEP6MemoryS6_R5StateT_T0_(ptr %505, ptr %state, ptr %RAX, i64 %504)
  store ptr %506, ptr %MEMORY, align 8
  %507 = load i64, ptr %NEXT_PC, align 8
  store i64 %507, ptr %PC, align 8
  %508 = add i64 %507, 1
  store i64 %508, ptr %NEXT_PC, align 8
  %509 = load ptr, ptr %MEMORY, align 8
  %510 = call ptr @_ZN12_GLOBAL__N_13RETEP6MemoryR5State3RnWImE(ptr %509, ptr %state, ptr %NEXT_PC)
  store ptr %510, ptr %MEMORY, align 8
  ret ptr %memory

bb_5395658053:                                    ; No predecessors!
  %511 = load i64, ptr %NEXT_PC, align 8
  store i64 %511, ptr %PC, align 8
  %512 = add i64 %511, 1
  store i64 %512, ptr %NEXT_PC, align 8
  %513 = load ptr, ptr %MEMORY, align 8
  %514 = call ptr @_ZN12_GLOBAL__N_16DoINT3EP6MemoryR5State3RnWImE(ptr %513, ptr %state, ptr undef)
  store ptr %514, ptr %MEMORY, align 8
  %515 = load i64, ptr %NEXT_PC, align 8
  store i64 %515, ptr %PC, align 8
  %516 = add i64 %515, 1
  store i64 %516, ptr %NEXT_PC, align 8
  %517 = load ptr, ptr %MEMORY, align 8
  %518 = call ptr @_ZN12_GLOBAL__N_16DoINT3EP6MemoryR5State3RnWImE(ptr %517, ptr %state, ptr undef)
  store ptr %518, ptr %MEMORY, align 8
  %519 = load i64, ptr %NEXT_PC, align 8
  store i64 %519, ptr %PC, align 8
  %520 = add i64 %519, 1
  store i64 %520, ptr %NEXT_PC, align 8
  %521 = load ptr, ptr %MEMORY, align 8
  %522 = call ptr @_ZN12_GLOBAL__N_16DoINT3EP6MemoryR5State3RnWImE(ptr %521, ptr %state, ptr undef)
  store ptr %522, ptr %MEMORY, align 8
  %523 = load i64, ptr %NEXT_PC, align 8
  store i64 %523, ptr %PC, align 8
  %524 = add i64 %523, 1
  store i64 %524, ptr %NEXT_PC, align 8
  %525 = load ptr, ptr %MEMORY, align 8
  %526 = call ptr @_ZN12_GLOBAL__N_16DoINT3EP6MemoryR5State3RnWImE(ptr %525, ptr %state, ptr undef)
  store ptr %526, ptr %MEMORY, align 8
  %527 = load i64, ptr %NEXT_PC, align 8
  store i64 %527, ptr %PC, align 8
  %528 = add i64 %527, 1
  store i64 %528, ptr %NEXT_PC, align 8
  %529 = load ptr, ptr %MEMORY, align 8
  %530 = call ptr @_ZN12_GLOBAL__N_16DoINT3EP6MemoryR5State3RnWImE(ptr %529, ptr %state, ptr undef)
  store ptr %530, ptr %MEMORY, align 8
  %531 = load i64, ptr %NEXT_PC, align 8
  store i64 %531, ptr %PC, align 8
  %532 = add i64 %531, 1
  store i64 %532, ptr %NEXT_PC, align 8
  %533 = load ptr, ptr %MEMORY, align 8
  %534 = call ptr @_ZN12_GLOBAL__N_16DoINT3EP6MemoryR5State3RnWImE(ptr %533, ptr %state, ptr undef)
  store ptr %534, ptr %MEMORY, align 8
  %535 = load i64, ptr %NEXT_PC, align 8
  store i64 %535, ptr %PC, align 8
  %536 = add i64 %535, 1
  store i64 %536, ptr %NEXT_PC, align 8
  %537 = load ptr, ptr %MEMORY, align 8
  %538 = call ptr @_ZN12_GLOBAL__N_16DoINT3EP6MemoryR5State3RnWImE(ptr %537, ptr %state, ptr undef)
  store ptr %538, ptr %MEMORY, align 8
  %539 = load i64, ptr %NEXT_PC, align 8
  store i64 %539, ptr %PC, align 8
  %540 = add i64 %539, 1
  store i64 %540, ptr %NEXT_PC, align 8
  %541 = load ptr, ptr %MEMORY, align 8
  %542 = call ptr @_ZN12_GLOBAL__N_16DoINT3EP6MemoryR5State3RnWImE(ptr %541, ptr %state, ptr undef)
  store ptr %542, ptr %MEMORY, align 8
  %543 = load i64, ptr %NEXT_PC, align 8
  store i64 %543, ptr %PC, align 8
  %544 = add i64 %543, 1
  store i64 %544, ptr %NEXT_PC, align 8
  %545 = load ptr, ptr %MEMORY, align 8
  %546 = call ptr @_ZN12_GLOBAL__N_16DoINT3EP6MemoryR5State3RnWImE(ptr %545, ptr %state, ptr undef)
  store ptr %546, ptr %MEMORY, align 8
  %547 = load i64, ptr %NEXT_PC, align 8
  store i64 %547, ptr %PC, align 8
  %548 = add i64 %547, 1
  store i64 %548, ptr %NEXT_PC, align 8
  %549 = load ptr, ptr %MEMORY, align 8
  %550 = call ptr @_ZN12_GLOBAL__N_16DoINT3EP6MemoryR5State3RnWImE(ptr %549, ptr %state, ptr undef)
  store ptr %550, ptr %MEMORY, align 8
  %551 = load i64, ptr %NEXT_PC, align 8
  store i64 %551, ptr %PC, align 8
  %552 = add i64 %551, 1
  store i64 %552, ptr %NEXT_PC, align 8
  %553 = load ptr, ptr %MEMORY, align 8
  %554 = call ptr @_ZN12_GLOBAL__N_16DoINT3EP6MemoryR5State3RnWImE(ptr %553, ptr %state, ptr undef)
  store ptr %554, ptr %MEMORY, align 8
  %555 = load i64, ptr %NEXT_PC, align 8
  store i64 %555, ptr %PC, align 8
  %556 = add i64 %555, 2
  store i64 %556, ptr %NEXT_PC, align 8
  %557 = load i64, ptr %RAX, align 8
  %558 = load i32, ptr %EAX, align 4
  %559 = zext i32 %558 to i64
  %560 = load ptr, ptr %MEMORY, align 8
  %561 = call ptr @_ZN12_GLOBAL__N_13XORI3RnWImE2RnIjLb1EES4_EEP6MemoryS6_R5StateT_T0_T1_(ptr %560, ptr %state, ptr %RAX, i64 %557, i64 %559)
  store ptr %561, ptr %MEMORY, align 8
  %562 = load i64, ptr %NEXT_PC, align 8
  store i64 %562, ptr %PC, align 8
  %563 = add i64 %562, 3
  store i64 %563, ptr %NEXT_PC, align 8
  %564 = load i64, ptr %RCX, align 8
  %565 = load i64, ptr %RCX, align 8
  %566 = load ptr, ptr %MEMORY, align 8
  %567 = call ptr @_ZN12_GLOBAL__N_14TESTI2RnImLb1EES2_EEP6MemoryS4_R5StateT_T0_(ptr %566, ptr %state, i64 %564, i64 %565)
  store ptr %567, ptr %MEMORY, align 8
  %568 = load i64, ptr %NEXT_PC, align 8
  store i64 %568, ptr %PC, align 8
  %569 = add i64 %568, 2
  store i64 %569, ptr %NEXT_PC, align 8
  %570 = load i64, ptr %NEXT_PC, align 8
  %571 = add i64 %570, 20
  %572 = load i64, ptr %NEXT_PC, align 8
  %573 = load ptr, ptr %MEMORY, align 8
  %574 = call ptr @_ZN12_GLOBAL__N_12JZEP6MemoryR5State3RnWIhE2InImES7_S4_ImE(ptr %573, ptr %state, ptr %BRANCH_TAKEN, i64 %571, i64 %572, ptr %NEXT_PC)
  store ptr %574, ptr %MEMORY, align 8
  br i1 true, label %bb_5395658091, label %bb_5395658071

bb_5395658071:                                    ; preds = %bb_5395658053
  %575 = load i64, ptr %NEXT_PC, align 8
  store i64 %575, ptr %PC, align 8
  %576 = add i64 %575, 9
  store i64 %576, ptr %NEXT_PC, align 8
  %577 = load i64, ptr %RAX, align 8
  %578 = load i64, ptr %RAX, align 8
  %579 = mul i64 %578, 1
  %580 = add i64 %577, %579
  %581 = load ptr, ptr %MEMORY, align 8
  %582 = call ptr @_ZN12_GLOBAL__N_18NOP_IMPLIJ2MnItEEEEP6MemoryS4_R5StateDpT_(ptr %581, ptr %state, i64 %580)
  store ptr %582, ptr %MEMORY, align 8
  br label %bb_5395658080

bb_5395658080:                                    ; preds = %bb_5395658080, %bb_5395658071
  %583 = load i64, ptr %NEXT_PC, align 8
  store i64 %583, ptr %PC, align 8
  %584 = add i64 %583, 4
  store i64 %584, ptr %NEXT_PC, align 8
  %585 = load i64, ptr %RCX, align 8
  %586 = add i64 %585, 8
  %587 = load ptr, ptr %MEMORY, align 8
  %588 = call ptr @_ZN12_GLOBAL__N_13MOVI3RnWImE2MnImEEEP6MemoryS6_R5StateT_T0_(ptr %587, ptr %state, ptr %RCX, i64 %586)
  store ptr %588, ptr %MEMORY, align 8
  %589 = load i64, ptr %NEXT_PC, align 8
  store i64 %589, ptr %PC, align 8
  %590 = add i64 %589, 2
  store i64 %590, ptr %NEXT_PC, align 8
  %591 = load i64, ptr %RAX, align 8
  %592 = load ptr, ptr %MEMORY, align 8
  %593 = call ptr @_ZN12_GLOBAL__N_13INCI3RnWImE2RnIjLb1EEEEP6MemoryS6_R5StateT_T0_(ptr %592, ptr %state, ptr %RAX, i64 %591)
  store ptr %593, ptr %MEMORY, align 8
  %594 = load i64, ptr %NEXT_PC, align 8
  store i64 %594, ptr %PC, align 8
  %595 = add i64 %594, 3
  store i64 %595, ptr %NEXT_PC, align 8
  %596 = load i64, ptr %RCX, align 8
  %597 = load i64, ptr %RCX, align 8
  %598 = load ptr, ptr %MEMORY, align 8
  %599 = call ptr @_ZN12_GLOBAL__N_14TESTI2RnImLb1EES2_EEP6MemoryS4_R5StateT_T0_(ptr %598, ptr %state, i64 %596, i64 %597)
  store ptr %599, ptr %MEMORY, align 8
  %600 = load i64, ptr %NEXT_PC, align 8
  store i64 %600, ptr %PC, align 8
  %601 = add i64 %600, 2
  store i64 %601, ptr %NEXT_PC, align 8
  %602 = load i64, ptr %NEXT_PC, align 8
  %603 = sub i64 %602, 11
  %604 = load i64, ptr %NEXT_PC, align 8
  %605 = load ptr, ptr %MEMORY, align 8
  %606 = call ptr @_ZN12_GLOBAL__N_13JNZEP6MemoryR5State3RnWIhE2InImES7_S4_ImE(ptr %605, ptr %state, ptr %BRANCH_TAKEN, i64 %603, i64 %604, ptr %NEXT_PC)
  store ptr %606, ptr %MEMORY, align 8
  br i1 true, label %bb_5395658080, label %bb_5395658091

bb_5395658091:                                    ; preds = %bb_5395658080, %bb_5395658053
  %607 = load i64, ptr %NEXT_PC, align 8
  store i64 %607, ptr %PC, align 8
  %608 = add i64 %607, 1
  store i64 %608, ptr %NEXT_PC, align 8
  %609 = load ptr, ptr %MEMORY, align 8
  %610 = call ptr @_ZN12_GLOBAL__N_13RETEP6MemoryR5State3RnWImE(ptr %609, ptr %state, ptr %NEXT_PC)
  store ptr %610, ptr %MEMORY, align 8
  ret ptr %memory

bb_5395658092:                                    ; No predecessors!
  %611 = load i64, ptr %NEXT_PC, align 8
  store i64 %611, ptr %PC, align 8
  %612 = add i64 %611, 1
  store i64 %612, ptr %NEXT_PC, align 8
  %613 = load ptr, ptr %MEMORY, align 8
  %614 = call ptr @_ZN12_GLOBAL__N_16DoINT3EP6MemoryR5State3RnWImE(ptr %613, ptr %state, ptr undef)
  store ptr %614, ptr %MEMORY, align 8
  %615 = load i64, ptr %NEXT_PC, align 8
  store i64 %615, ptr %PC, align 8
  %616 = add i64 %615, 1
  store i64 %616, ptr %NEXT_PC, align 8
  %617 = load ptr, ptr %MEMORY, align 8
  %618 = call ptr @_ZN12_GLOBAL__N_16DoINT3EP6MemoryR5State3RnWImE(ptr %617, ptr %state, ptr undef)
  store ptr %618, ptr %MEMORY, align 8
  %619 = load i64, ptr %NEXT_PC, align 8
  store i64 %619, ptr %PC, align 8
  %620 = add i64 %619, 1
  store i64 %620, ptr %NEXT_PC, align 8
  %621 = load ptr, ptr %MEMORY, align 8
  %622 = call ptr @_ZN12_GLOBAL__N_16DoINT3EP6MemoryR5State3RnWImE(ptr %621, ptr %state, ptr undef)
  store ptr %622, ptr %MEMORY, align 8
  %623 = load i64, ptr %NEXT_PC, align 8
  store i64 %623, ptr %PC, align 8
  %624 = add i64 %623, 1
  store i64 %624, ptr %NEXT_PC, align 8
  %625 = load ptr, ptr %MEMORY, align 8
  %626 = call ptr @_ZN12_GLOBAL__N_16DoINT3EP6MemoryR5State3RnWImE(ptr %625, ptr %state, ptr undef)
  store ptr %626, ptr %MEMORY, align 8
  %627 = load i64, ptr %NEXT_PC, align 8
  store i64 %627, ptr %PC, align 8
  %628 = add i64 %627, 1
  store i64 %628, ptr %NEXT_PC, align 8
  %629 = load ptr, ptr %MEMORY, align 8
  %630 = call ptr @_ZN12_GLOBAL__N_16DoINT3EP6MemoryR5State3RnWImE(ptr %629, ptr %state, ptr undef)
  store ptr %630, ptr %MEMORY, align 8
  %631 = load i64, ptr %NEXT_PC, align 8
  store i64 %631, ptr %PC, align 8
  %632 = add i64 %631, 1
  store i64 %632, ptr %NEXT_PC, align 8
  %633 = load ptr, ptr %MEMORY, align 8
  %634 = call ptr @_ZN12_GLOBAL__N_16DoINT3EP6MemoryR5State3RnWImE(ptr %633, ptr %state, ptr undef)
  store ptr %634, ptr %MEMORY, align 8
  %635 = load i64, ptr %NEXT_PC, align 8
  store i64 %635, ptr %PC, align 8
  %636 = add i64 %635, 1
  store i64 %636, ptr %NEXT_PC, align 8
  %637 = load ptr, ptr %MEMORY, align 8
  %638 = call ptr @_ZN12_GLOBAL__N_16DoINT3EP6MemoryR5State3RnWImE(ptr %637, ptr %state, ptr undef)
  store ptr %638, ptr %MEMORY, align 8
  %639 = load i64, ptr %NEXT_PC, align 8
  store i64 %639, ptr %PC, align 8
  %640 = add i64 %639, 1
  store i64 %640, ptr %NEXT_PC, align 8
  %641 = load ptr, ptr %MEMORY, align 8
  %642 = call ptr @_ZN12_GLOBAL__N_16DoINT3EP6MemoryR5State3RnWImE(ptr %641, ptr %state, ptr undef)
  store ptr %642, ptr %MEMORY, align 8
  %643 = load i64, ptr %NEXT_PC, align 8
  store i64 %643, ptr %PC, align 8
  %644 = add i64 %643, 1
  store i64 %644, ptr %NEXT_PC, align 8
  %645 = load ptr, ptr %MEMORY, align 8
  %646 = call ptr @_ZN12_GLOBAL__N_16DoINT3EP6MemoryR5State3RnWImE(ptr %645, ptr %state, ptr undef)
  store ptr %646, ptr %MEMORY, align 8
  %647 = load i64, ptr %NEXT_PC, align 8
  store i64 %647, ptr %PC, align 8
  %648 = add i64 %647, 1
  store i64 %648, ptr %NEXT_PC, align 8
  %649 = load ptr, ptr %MEMORY, align 8
  %650 = call ptr @_ZN12_GLOBAL__N_16DoINT3EP6MemoryR5State3RnWImE(ptr %649, ptr %state, ptr undef)
  store ptr %650, ptr %MEMORY, align 8
  %651 = load i64, ptr %NEXT_PC, align 8
  store i64 %651, ptr %PC, align 8
  %652 = add i64 %651, 1
  store i64 %652, ptr %NEXT_PC, align 8
  %653 = load ptr, ptr %MEMORY, align 8
  %654 = call ptr @_ZN12_GLOBAL__N_16DoINT3EP6MemoryR5State3RnWImE(ptr %653, ptr %state, ptr undef)
  store ptr %654, ptr %MEMORY, align 8
  %655 = load i64, ptr %NEXT_PC, align 8
  store i64 %655, ptr %PC, align 8
  %656 = add i64 %655, 1
  store i64 %656, ptr %NEXT_PC, align 8
  %657 = load ptr, ptr %MEMORY, align 8
  %658 = call ptr @_ZN12_GLOBAL__N_16DoINT3EP6MemoryR5State3RnWImE(ptr %657, ptr %state, ptr undef)
  store ptr %658, ptr %MEMORY, align 8
  %659 = load i64, ptr %NEXT_PC, align 8
  store i64 %659, ptr %PC, align 8
  %660 = add i64 %659, 1
  store i64 %660, ptr %NEXT_PC, align 8
  %661 = load ptr, ptr %MEMORY, align 8
  %662 = call ptr @_ZN12_GLOBAL__N_16DoINT3EP6MemoryR5State3RnWImE(ptr %661, ptr %state, ptr undef)
  store ptr %662, ptr %MEMORY, align 8
  %663 = load i64, ptr %NEXT_PC, align 8
  store i64 %663, ptr %PC, align 8
  %664 = add i64 %663, 1
  store i64 %664, ptr %NEXT_PC, align 8
  %665 = load ptr, ptr %MEMORY, align 8
  %666 = call ptr @_ZN12_GLOBAL__N_16DoINT3EP6MemoryR5State3RnWImE(ptr %665, ptr %state, ptr undef)
  store ptr %666, ptr %MEMORY, align 8
  %667 = load i64, ptr %NEXT_PC, align 8
  store i64 %667, ptr %PC, align 8
  %668 = add i64 %667, 1
  store i64 %668, ptr %NEXT_PC, align 8
  %669 = load ptr, ptr %MEMORY, align 8
  %670 = call ptr @_ZN12_GLOBAL__N_16DoINT3EP6MemoryR5State3RnWImE(ptr %669, ptr %state, ptr undef)
  store ptr %670, ptr %MEMORY, align 8
  %671 = load i64, ptr %NEXT_PC, align 8
  store i64 %671, ptr %PC, align 8
  %672 = add i64 %671, 1
  store i64 %672, ptr %NEXT_PC, align 8
  %673 = load ptr, ptr %MEMORY, align 8
  %674 = call ptr @_ZN12_GLOBAL__N_16DoINT3EP6MemoryR5State3RnWImE(ptr %673, ptr %state, ptr undef)
  store ptr %674, ptr %MEMORY, align 8
  %675 = load i64, ptr %NEXT_PC, align 8
  store i64 %675, ptr %PC, align 8
  %676 = add i64 %675, 1
  store i64 %676, ptr %NEXT_PC, align 8
  %677 = load ptr, ptr %MEMORY, align 8
  %678 = call ptr @_ZN12_GLOBAL__N_16DoINT3EP6MemoryR5State3RnWImE(ptr %677, ptr %state, ptr undef)
  store ptr %678, ptr %MEMORY, align 8
  %679 = load i64, ptr %NEXT_PC, align 8
  store i64 %679, ptr %PC, align 8
  %680 = add i64 %679, 1
  store i64 %680, ptr %NEXT_PC, align 8
  %681 = load ptr, ptr %MEMORY, align 8
  %682 = call ptr @_ZN12_GLOBAL__N_16DoINT3EP6MemoryR5State3RnWImE(ptr %681, ptr %state, ptr undef)
  store ptr %682, ptr %MEMORY, align 8
  %683 = load i64, ptr %NEXT_PC, align 8
  store i64 %683, ptr %PC, align 8
  %684 = add i64 %683, 1
  store i64 %684, ptr %NEXT_PC, align 8
  %685 = load ptr, ptr %MEMORY, align 8
  %686 = call ptr @_ZN12_GLOBAL__N_16DoINT3EP6MemoryR5State3RnWImE(ptr %685, ptr %state, ptr undef)
  store ptr %686, ptr %MEMORY, align 8
  %687 = load i64, ptr %NEXT_PC, align 8
  store i64 %687, ptr %PC, align 8
  %688 = add i64 %687, 1
  store i64 %688, ptr %NEXT_PC, align 8
  %689 = load ptr, ptr %MEMORY, align 8
  %690 = call ptr @_ZN12_GLOBAL__N_16DoINT3EP6MemoryR5State3RnWImE(ptr %689, ptr %state, ptr undef)
  store ptr %690, ptr %MEMORY, align 8
  %691 = load i64, ptr %NEXT_PC, align 8
  store i64 %691, ptr %PC, align 8
  %692 = add i64 %691, 5
  store i64 %692, ptr %NEXT_PC, align 8
  %693 = load i64, ptr %RSP, align 8
  %694 = add i64 %693, 8
  %695 = load i64, ptr %RBX, align 8
  %696 = load ptr, ptr %MEMORY, align 8
  %697 = call ptr @_ZN12_GLOBAL__N_13MOVI3MnWImE2RnImLb1EEEEP6MemoryS6_R5StateT_T0_(ptr %696, ptr %state, i64 %694, i64 %695)
  store ptr %697, ptr %MEMORY, align 8
  %698 = load i64, ptr %NEXT_PC, align 8
  store i64 %698, ptr %PC, align 8
  %699 = add i64 %698, 5
  store i64 %699, ptr %NEXT_PC, align 8
  %700 = load i64, ptr %RSP, align 8
  %701 = add i64 %700, 16
  %702 = load i64, ptr %RBP, align 8
  %703 = load ptr, ptr %MEMORY, align 8
  %704 = call ptr @_ZN12_GLOBAL__N_13MOVI3MnWImE2RnImLb1EEEEP6MemoryS6_R5StateT_T0_(ptr %703, ptr %state, i64 %701, i64 %702)
  store ptr %704, ptr %MEMORY, align 8
  %705 = load i64, ptr %NEXT_PC, align 8
  store i64 %705, ptr %PC, align 8
  %706 = add i64 %705, 5
  store i64 %706, ptr %NEXT_PC, align 8
  %707 = load i64, ptr %RSP, align 8
  %708 = add i64 %707, 24
  %709 = load i64, ptr %RSI, align 8
  %710 = load ptr, ptr %MEMORY, align 8
  %711 = call ptr @_ZN12_GLOBAL__N_13MOVI3MnWImE2RnImLb1EEEEP6MemoryS6_R5StateT_T0_(ptr %710, ptr %state, i64 %708, i64 %709)
  store ptr %711, ptr %MEMORY, align 8
  %712 = load i64, ptr %NEXT_PC, align 8
  store i64 %712, ptr %PC, align 8
  %713 = add i64 %712, 1
  store i64 %713, ptr %NEXT_PC, align 8
  %714 = load i64, ptr %RDI, align 8
  %715 = load ptr, ptr %MEMORY, align 8
  %716 = call ptr @_ZN12_GLOBAL__N_14PUSHI2InImEEEP6MemoryS4_R5StateT_(ptr %715, ptr %state, i64 %714)
  store ptr %716, ptr %MEMORY, align 8
  %717 = load i64, ptr %NEXT_PC, align 8
  store i64 %717, ptr %PC, align 8
  %718 = add i64 %717, 4
  store i64 %718, ptr %NEXT_PC, align 8
  %719 = load i64, ptr %RSP, align 8
  %720 = load ptr, ptr %MEMORY, align 8
  %721 = call ptr @_ZN12_GLOBAL__N_13SUBI3RnWImE2RnImLb1EE2InImEEEP6MemoryS8_R5StateT_T0_T1_(ptr %720, ptr %state, ptr %RSP, i64 %719, i64 32)
  store ptr %721, ptr %MEMORY, align 8
  %722 = load i64, ptr %NEXT_PC, align 8
  store i64 %722, ptr %PC, align 8
  %723 = add i64 %722, 3
  store i64 %723, ptr %NEXT_PC, align 8
  %724 = load i64, ptr %R8, align 8
  %725 = load ptr, ptr %MEMORY, align 8
  %726 = call ptr @_ZN12_GLOBAL__N_13MOVI3RnWImE2RnImLb1EEEEP6MemoryS6_R5StateT_T0_(ptr %725, ptr %state, ptr %RBX, i64 %724)
  store ptr %726, ptr %MEMORY, align 8
  %727 = load i64, ptr %NEXT_PC, align 8
  store i64 %727, ptr %PC, align 8
  %728 = add i64 %727, 3
  store i64 %728, ptr %NEXT_PC, align 8
  %729 = load i64, ptr %RDX, align 8
  %730 = load ptr, ptr %MEMORY, align 8
  %731 = call ptr @_ZN12_GLOBAL__N_13MOVI3RnWImE2RnImLb1EEEEP6MemoryS6_R5StateT_T0_(ptr %730, ptr %state, ptr %RSI, i64 %729)
  store ptr %731, ptr %MEMORY, align 8
  %732 = load i64, ptr %NEXT_PC, align 8
  store i64 %732, ptr %PC, align 8
  %733 = add i64 %732, 3
  store i64 %733, ptr %NEXT_PC, align 8
  %734 = load i64, ptr %RCX, align 8
  %735 = load ptr, ptr %MEMORY, align 8
  %736 = call ptr @_ZN12_GLOBAL__N_13MOVI3RnWImE2RnImLb1EEEEP6MemoryS6_R5StateT_T0_(ptr %735, ptr %state, ptr %RBP, i64 %734)
  store ptr %736, ptr %MEMORY, align 8
  %737 = load i64, ptr %NEXT_PC, align 8
  store i64 %737, ptr %PC, align 8
  %738 = add i64 %737, 3
  store i64 %738, ptr %NEXT_PC, align 8
  %739 = load i64, ptr %R8, align 8
  %740 = load i64, ptr %R8, align 8
  %741 = load ptr, ptr %MEMORY, align 8
  %742 = call ptr @_ZN12_GLOBAL__N_14TESTI2RnImLb1EES2_EEP6MemoryS4_R5StateT_T0_(ptr %741, ptr %state, i64 %739, i64 %740)
  store ptr %742, ptr %MEMORY, align 8
  %743 = load i64, ptr %NEXT_PC, align 8
  store i64 %743, ptr %PC, align 8
  %744 = add i64 %743, 2
  store i64 %744, ptr %NEXT_PC, align 8
  %745 = load i64, ptr %NEXT_PC, align 8
  %746 = add i64 %745, 50
  %747 = load i64, ptr %NEXT_PC, align 8
  %748 = load ptr, ptr %MEMORY, align 8
  %749 = call ptr @_ZN12_GLOBAL__N_12JZEP6MemoryR5State3RnWIhE2InImES7_S4_ImE(ptr %748, ptr %state, ptr %BRANCH_TAKEN, i64 %746, i64 %747, ptr %NEXT_PC)
  store ptr %749, ptr %MEMORY, align 8
  br i1 true, label %bb_5395658196, label %bb_5395658146

bb_5395658146:                                    ; preds = %bb_5395658180, %bb_5395658092
  %750 = load i64, ptr %NEXT_PC, align 8
  store i64 %750, ptr %PC, align 8
  %751 = add i64 %750, 3
  store i64 %751, ptr %NEXT_PC, align 8
  %752 = load i64, ptr %RBP, align 8
  %753 = load ptr, ptr %MEMORY, align 8
  %754 = call ptr @_ZN12_GLOBAL__N_13MOVI3RnWImE2RnImLb1EEEEP6MemoryS6_R5StateT_T0_(ptr %753, ptr %state, ptr %RCX, i64 %752)
  store ptr %754, ptr %MEMORY, align 8
  %755 = load i64, ptr %NEXT_PC, align 8
  store i64 %755, ptr %PC, align 8
  %756 = add i64 %755, 5
  store i64 %756, ptr %NEXT_PC, align 8
  %757 = load i64, ptr %NEXT_PC, align 8
  %758 = sub i64 %757, 234
  %759 = load i64, ptr %NEXT_PC, align 8
  %760 = load ptr, ptr %MEMORY, align 8
  %761 = call ptr @_ZN12_GLOBAL__N_14CALLI2InImEEEP6MemoryS4_R5StateT_3RnWImES2_S9_(ptr %760, ptr %state, i64 %758, ptr %NEXT_PC, i64 %759, ptr %RETURN_PC)
  store ptr %761, ptr %MEMORY, align 8
  %762 = load i64, ptr %NEXT_PC, align 8
  store i64 %762, ptr %PC, align 8
  %763 = add i64 %762, 3
  store i64 %763, ptr %NEXT_PC, align 8
  %764 = load i64, ptr %RBX, align 8
  %765 = load ptr, ptr %MEMORY, align 8
  %766 = call ptr @_ZN12_GLOBAL__N_13MOVI3RnWImE2RnImLb1EEEEP6MemoryS6_R5StateT_T0_(ptr %765, ptr %state, ptr %RCX, i64 %764)
  store ptr %766, ptr %MEMORY, align 8
  %767 = load i64, ptr %NEXT_PC, align 8
  store i64 %767, ptr %PC, align 8
  %768 = add i64 %767, 3
  store i64 %768, ptr %NEXT_PC, align 8
  %769 = load i64, ptr %RAX, align 8
  %770 = load ptr, ptr %MEMORY, align 8
  %771 = call ptr @_ZN12_GLOBAL__N_13MOVI3RnWImE2RnImLb1EEEEP6MemoryS6_R5StateT_T0_(ptr %770, ptr %state, ptr %RDI, i64 %769)
  store ptr %771, ptr %MEMORY, align 8
  %772 = load i64, ptr %NEXT_PC, align 8
  store i64 %772, ptr %PC, align 8
  %773 = add i64 %772, 5
  store i64 %773, ptr %NEXT_PC, align 8
  %774 = load i64, ptr %NEXT_PC, align 8
  %775 = sub i64 %774, 245
  %776 = load i64, ptr %NEXT_PC, align 8
  %777 = load ptr, ptr %MEMORY, align 8
  %778 = call ptr @_ZN12_GLOBAL__N_14CALLI2InImEEEP6MemoryS4_R5StateT_3RnWImES2_S9_(ptr %777, ptr %state, i64 %775, ptr %NEXT_PC, i64 %776, ptr %RETURN_PC)
  store ptr %778, ptr %MEMORY, align 8
  %779 = load i64, ptr %NEXT_PC, align 8
  store i64 %779, ptr %PC, align 8
  %780 = add i64 %779, 3
  store i64 %780, ptr %NEXT_PC, align 8
  %781 = load i64, ptr %RAX, align 8
  %782 = load ptr, ptr %MEMORY, align 8
  %783 = call ptr @_ZN12_GLOBAL__N_13MOVI3RnWImE2RnImLb1EEEEP6MemoryS6_R5StateT_T0_(ptr %782, ptr %state, ptr %RCX, i64 %781)
  store ptr %783, ptr %MEMORY, align 8
  %784 = load i64, ptr %NEXT_PC, align 8
  store i64 %784, ptr %PC, align 8
  %785 = add i64 %784, 3
  store i64 %785, ptr %NEXT_PC, align 8
  %786 = load i64, ptr %RDI, align 8
  %787 = load ptr, ptr %MEMORY, align 8
  %788 = call ptr @_ZN12_GLOBAL__N_13MOVI3RnWImE2RnImLb1EEEEP6MemoryS6_R5StateT_T0_(ptr %787, ptr %state, ptr %RDX, i64 %786)
  store ptr %788, ptr %MEMORY, align 8
  %789 = load i64, ptr %NEXT_PC, align 8
  store i64 %789, ptr %PC, align 8
  %790 = add i64 %789, 5
  store i64 %790, ptr %NEXT_PC, align 8
  %791 = load i64, ptr %NEXT_PC, align 8
  %792 = add i64 %791, 46144
  %793 = load i64, ptr %NEXT_PC, align 8
  %794 = load ptr, ptr %MEMORY, align 8
  %795 = call ptr @_ZN12_GLOBAL__N_14CALLI2InImEEEP6MemoryS4_R5StateT_3RnWImES2_S9_(ptr %794, ptr %state, i64 %792, ptr %NEXT_PC, i64 %793, ptr %RETURN_PC)
  store ptr %795, ptr %MEMORY, align 8
  %796 = load i64, ptr %NEXT_PC, align 8
  store i64 %796, ptr %PC, align 8
  %797 = add i64 %796, 2
  store i64 %797, ptr %NEXT_PC, align 8
  %798 = load i32, ptr %EAX, align 4
  %799 = zext i32 %798 to i64
  %800 = load i32, ptr %EAX, align 4
  %801 = zext i32 %800 to i64
  %802 = load ptr, ptr %MEMORY, align 8
  %803 = call ptr @_ZN12_GLOBAL__N_14TESTI2RnIjLb1EES2_EEP6MemoryS4_R5StateT_T0_(ptr %802, ptr %state, i64 %799, i64 %801)
  store ptr %803, ptr %MEMORY, align 8
  %804 = load i64, ptr %NEXT_PC, align 8
  store i64 %804, ptr %PC, align 8
  %805 = add i64 %804, 2
  store i64 %805, ptr %NEXT_PC, align 8
  %806 = load i64, ptr %NEXT_PC, align 8
  %807 = add i64 %806, 43
  %808 = load i64, ptr %NEXT_PC, align 8
  %809 = load ptr, ptr %MEMORY, align 8
  %810 = call ptr @_ZN12_GLOBAL__N_12JZEP6MemoryR5State3RnWIhE2InImES7_S4_ImE(ptr %809, ptr %state, ptr %BRANCH_TAKEN, i64 %807, i64 %808, ptr %NEXT_PC)
  store ptr %810, ptr %MEMORY, align 8
  br i1 true, label %bb_5395658223, label %bb_5395658180

bb_5395658180:                                    ; preds = %bb_5395658146
  %811 = load i64, ptr %NEXT_PC, align 8
  store i64 %811, ptr %PC, align 8
  %812 = add i64 %811, 3
  store i64 %812, ptr %NEXT_PC, align 8
  %813 = load i64, ptr %RBX, align 8
  %814 = load ptr, ptr %MEMORY, align 8
  %815 = call ptr @_ZN12_GLOBAL__N_13MOVI3RnWImE2RnImLb1EEEEP6MemoryS6_R5StateT_T0_(ptr %814, ptr %state, ptr %RCX, i64 %813)
  store ptr %815, ptr %MEMORY, align 8
  %816 = load i64, ptr %NEXT_PC, align 8
  store i64 %816, ptr %PC, align 8
  %817 = add i64 %816, 5
  store i64 %817, ptr %NEXT_PC, align 8
  %818 = load i64, ptr %NEXT_PC, align 8
  %819 = sub i64 %818, 156
  %820 = load i64, ptr %NEXT_PC, align 8
  %821 = load ptr, ptr %MEMORY, align 8
  %822 = call ptr @_ZN12_GLOBAL__N_14CALLI2InImEEEP6MemoryS4_R5StateT_3RnWImES2_S9_(ptr %821, ptr %state, i64 %819, ptr %NEXT_PC, i64 %820, ptr %RETURN_PC)
  store ptr %822, ptr %MEMORY, align 8
  %823 = load i64, ptr %NEXT_PC, align 8
  store i64 %823, ptr %PC, align 8
  %824 = add i64 %823, 3
  store i64 %824, ptr %NEXT_PC, align 8
  %825 = load i64, ptr %RAX, align 8
  %826 = load ptr, ptr %MEMORY, align 8
  %827 = call ptr @_ZN12_GLOBAL__N_13MOVI3RnWImE2RnImLb1EEEEP6MemoryS6_R5StateT_T0_(ptr %826, ptr %state, ptr %RBX, i64 %825)
  store ptr %827, ptr %MEMORY, align 8
  %828 = load i64, ptr %NEXT_PC, align 8
  store i64 %828, ptr %PC, align 8
  %829 = add i64 %828, 3
  store i64 %829, ptr %NEXT_PC, align 8
  %830 = load i64, ptr %RAX, align 8
  %831 = load i64, ptr %RAX, align 8
  %832 = load ptr, ptr %MEMORY, align 8
  %833 = call ptr @_ZN12_GLOBAL__N_14TESTI2RnImLb1EES2_EEP6MemoryS4_R5StateT_T0_(ptr %832, ptr %state, i64 %830, i64 %831)
  store ptr %833, ptr %MEMORY, align 8
  %834 = load i64, ptr %NEXT_PC, align 8
  store i64 %834, ptr %PC, align 8
  %835 = add i64 %834, 2
  store i64 %835, ptr %NEXT_PC, align 8
  %836 = load i64, ptr %NEXT_PC, align 8
  %837 = sub i64 %836, 50
  %838 = load i64, ptr %NEXT_PC, align 8
  %839 = load ptr, ptr %MEMORY, align 8
  %840 = call ptr @_ZN12_GLOBAL__N_13JNZEP6MemoryR5State3RnWIhE2InImES7_S4_ImE(ptr %839, ptr %state, ptr %BRANCH_TAKEN, i64 %837, i64 %838, ptr %NEXT_PC)
  store ptr %840, ptr %MEMORY, align 8
  br i1 true, label %bb_5395658146, label %bb_5395658196

bb_5395658196:                                    ; preds = %bb_5395658180, %bb_5395658092
  %841 = load i64, ptr %NEXT_PC, align 8
  store i64 %841, ptr %PC, align 8
  %842 = add i64 %841, 3
  store i64 %842, ptr %NEXT_PC, align 8
  %843 = load i64, ptr %RSI, align 8
  %844 = load ptr, ptr %MEMORY, align 8
  %845 = call ptr @_ZN12_GLOBAL__N_13MOVI3MnWIhE2InIhEEEP6MemoryS6_R5StateT_T0_(ptr %844, ptr %state, i64 %843, i64 0)
  store ptr %845, ptr %MEMORY, align 8
  br label %bb_5395658199

bb_5395658199:                                    ; preds = %bb_5395658223, %bb_5395658196
  %846 = load i64, ptr %NEXT_PC, align 8
  store i64 %846, ptr %PC, align 8
  %847 = add i64 %846, 5
  store i64 %847, ptr %NEXT_PC, align 8
  %848 = load i64, ptr %RSP, align 8
  %849 = add i64 %848, 48
  %850 = load ptr, ptr %MEMORY, align 8
  %851 = call ptr @_ZN12_GLOBAL__N_13MOVI3RnWImE2MnImEEEP6MemoryS6_R5StateT_T0_(ptr %850, ptr %state, ptr %RBX, i64 %849)
  store ptr %851, ptr %MEMORY, align 8
  %852 = load i64, ptr %NEXT_PC, align 8
  store i64 %852, ptr %PC, align 8
  %853 = add i64 %852, 3
  store i64 %853, ptr %NEXT_PC, align 8
  %854 = load i64, ptr %RSI, align 8
  %855 = load ptr, ptr %MEMORY, align 8
  %856 = call ptr @_ZN12_GLOBAL__N_13MOVI3RnWImE2RnImLb1EEEEP6MemoryS6_R5StateT_T0_(ptr %855, ptr %state, ptr %RAX, i64 %854)
  store ptr %856, ptr %MEMORY, align 8
  %857 = load i64, ptr %NEXT_PC, align 8
  store i64 %857, ptr %PC, align 8
  %858 = add i64 %857, 5
  store i64 %858, ptr %NEXT_PC, align 8
  %859 = load i64, ptr %RSP, align 8
  %860 = add i64 %859, 64
  %861 = load ptr, ptr %MEMORY, align 8
  %862 = call ptr @_ZN12_GLOBAL__N_13MOVI3RnWImE2MnImEEEP6MemoryS6_R5StateT_T0_(ptr %861, ptr %state, ptr %RSI, i64 %860)
  store ptr %862, ptr %MEMORY, align 8
  %863 = load i64, ptr %NEXT_PC, align 8
  store i64 %863, ptr %PC, align 8
  %864 = add i64 %863, 5
  store i64 %864, ptr %NEXT_PC, align 8
  %865 = load i64, ptr %RSP, align 8
  %866 = add i64 %865, 56
  %867 = load ptr, ptr %MEMORY, align 8
  %868 = call ptr @_ZN12_GLOBAL__N_13MOVI3RnWImE2MnImEEEP6MemoryS6_R5StateT_T0_(ptr %867, ptr %state, ptr %RBP, i64 %866)
  store ptr %868, ptr %MEMORY, align 8
  %869 = load i64, ptr %NEXT_PC, align 8
  store i64 %869, ptr %PC, align 8
  %870 = add i64 %869, 4
  store i64 %870, ptr %NEXT_PC, align 8
  %871 = load i64, ptr %RSP, align 8
  %872 = load ptr, ptr %MEMORY, align 8
  %873 = call ptr @_ZN12_GLOBAL__N_13ADDI3RnWImE2RnImLb1EE2InImEEEP6MemoryS8_R5StateT_T0_T1_(ptr %872, ptr %state, ptr %RSP, i64 %871, i64 32)
  store ptr %873, ptr %MEMORY, align 8
  %874 = load i64, ptr %NEXT_PC, align 8
  store i64 %874, ptr %PC, align 8
  %875 = add i64 %874, 1
  store i64 %875, ptr %NEXT_PC, align 8
  %876 = load ptr, ptr %MEMORY, align 8
  %877 = call ptr @_ZN12_GLOBAL__N_13POPI3RnWImEEEP6MemoryS4_R5StateT_(ptr %876, ptr %state, ptr %RDI)
  store ptr %877, ptr %MEMORY, align 8
  %878 = load i64, ptr %NEXT_PC, align 8
  store i64 %878, ptr %PC, align 8
  %879 = add i64 %878, 1
  store i64 %879, ptr %NEXT_PC, align 8
  %880 = load ptr, ptr %MEMORY, align 8
  %881 = call ptr @_ZN12_GLOBAL__N_13RETEP6MemoryR5State3RnWImE(ptr %880, ptr %state, ptr %NEXT_PC)
  store ptr %881, ptr %MEMORY, align 8
  ret ptr %memory

bb_5395658223:                                    ; preds = %bb_5395658146
  %882 = load i64, ptr %NEXT_PC, align 8
  store i64 %882, ptr %PC, align 8
  %883 = add i64 %882, 3
  store i64 %883, ptr %NEXT_PC, align 8
  %884 = load i64, ptr %RSI, align 8
  %885 = load ptr, ptr %MEMORY, align 8
  %886 = call ptr @_ZN12_GLOBAL__N_13MOVI3MnWIhE2InIhEEEP6MemoryS6_R5StateT_T0_(ptr %885, ptr %state, i64 %884, i64 1)
  store ptr %886, ptr %MEMORY, align 8
  %887 = load i64, ptr %NEXT_PC, align 8
  store i64 %887, ptr %PC, align 8
  %888 = add i64 %887, 2
  store i64 %888, ptr %NEXT_PC, align 8
  %889 = load i64, ptr %NEXT_PC, align 8
  %890 = sub i64 %889, 29
  %891 = load ptr, ptr %MEMORY, align 8
  %892 = call ptr @_ZN12_GLOBAL__N_13JMPI2InImEEEP6MemoryS4_R5StateT_3RnWImE(ptr %891, ptr %state, i64 %890, ptr %NEXT_PC)
  store ptr %892, ptr %MEMORY, align 8
  br label %bb_5395658199
  %893 = load i64, ptr %NEXT_PC, align 8
  store i64 %893, ptr %PC, align 8
  %894 = add i64 %893, 1
  store i64 %894, ptr %NEXT_PC, align 8
  %895 = load ptr, ptr %MEMORY, align 8
  %896 = call ptr @_ZN12_GLOBAL__N_16DoINT3EP6MemoryR5State3RnWImE(ptr %895, ptr %state, ptr undef)
  store ptr %896, ptr %MEMORY, align 8
  %897 = load i64, ptr %NEXT_PC, align 8
  store i64 %897, ptr %PC, align 8
  %898 = add i64 %897, 1
  store i64 %898, ptr %NEXT_PC, align 8
  %899 = load ptr, ptr %MEMORY, align 8
  %900 = call ptr @_ZN12_GLOBAL__N_16DoINT3EP6MemoryR5State3RnWImE(ptr %899, ptr %state, ptr undef)
  store ptr %900, ptr %MEMORY, align 8
  %901 = load i64, ptr %NEXT_PC, align 8
  store i64 %901, ptr %PC, align 8
  %902 = add i64 %901, 1
  store i64 %902, ptr %NEXT_PC, align 8
  %903 = load ptr, ptr %MEMORY, align 8
  %904 = call ptr @_ZN12_GLOBAL__N_16DoINT3EP6MemoryR5State3RnWImE(ptr %903, ptr %state, ptr undef)
  store ptr %904, ptr %MEMORY, align 8
  %905 = load i64, ptr %NEXT_PC, align 8
  store i64 %905, ptr %PC, align 8
  %906 = add i64 %905, 1
  store i64 %906, ptr %NEXT_PC, align 8
  %907 = load ptr, ptr %MEMORY, align 8
  %908 = call ptr @_ZN12_GLOBAL__N_16DoINT3EP6MemoryR5State3RnWImE(ptr %907, ptr %state, ptr undef)
  store ptr %908, ptr %MEMORY, align 8
  %909 = load i64, ptr %NEXT_PC, align 8
  store i64 %909, ptr %PC, align 8
  %910 = add i64 %909, 1
  store i64 %910, ptr %NEXT_PC, align 8
  %911 = load ptr, ptr %MEMORY, align 8
  %912 = call ptr @_ZN12_GLOBAL__N_16DoINT3EP6MemoryR5State3RnWImE(ptr %911, ptr %state, ptr undef)
  store ptr %912, ptr %MEMORY, align 8
  %913 = load i64, ptr %NEXT_PC, align 8
  store i64 %913, ptr %PC, align 8
  %914 = add i64 %913, 1
  store i64 %914, ptr %NEXT_PC, align 8
  %915 = load ptr, ptr %MEMORY, align 8
  %916 = call ptr @_ZN12_GLOBAL__N_16DoINT3EP6MemoryR5State3RnWImE(ptr %915, ptr %state, ptr undef)
  store ptr %916, ptr %MEMORY, align 8
  %917 = load i64, ptr %NEXT_PC, align 8
  store i64 %917, ptr %PC, align 8
  %918 = add i64 %917, 1
  store i64 %918, ptr %NEXT_PC, align 8
  %919 = load ptr, ptr %MEMORY, align 8
  %920 = call ptr @_ZN12_GLOBAL__N_16DoINT3EP6MemoryR5State3RnWImE(ptr %919, ptr %state, ptr undef)
  store ptr %920, ptr %MEMORY, align 8
  %921 = load i64, ptr %NEXT_PC, align 8
  store i64 %921, ptr %PC, align 8
  %922 = add i64 %921, 1
  store i64 %922, ptr %NEXT_PC, align 8
  %923 = load ptr, ptr %MEMORY, align 8
  %924 = call ptr @_ZN12_GLOBAL__N_16DoINT3EP6MemoryR5State3RnWImE(ptr %923, ptr %state, ptr undef)
  store ptr %924, ptr %MEMORY, align 8
  %925 = load i64, ptr %NEXT_PC, align 8
  store i64 %925, ptr %PC, align 8
  %926 = add i64 %925, 1
  store i64 %926, ptr %NEXT_PC, align 8
  %927 = load ptr, ptr %MEMORY, align 8
  %928 = call ptr @_ZN12_GLOBAL__N_16DoINT3EP6MemoryR5State3RnWImE(ptr %927, ptr %state, ptr undef)
  store ptr %928, ptr %MEMORY, align 8
  %929 = load i64, ptr %NEXT_PC, align 8
  store i64 %929, ptr %PC, align 8
  %930 = add i64 %929, 1
  store i64 %930, ptr %NEXT_PC, align 8
  %931 = load ptr, ptr %MEMORY, align 8
  %932 = call ptr @_ZN12_GLOBAL__N_16DoINT3EP6MemoryR5State3RnWImE(ptr %931, ptr %state, ptr undef)
  store ptr %932, ptr %MEMORY, align 8
  %933 = load i64, ptr %NEXT_PC, align 8
  store i64 %933, ptr %PC, align 8
  %934 = add i64 %933, 1
  store i64 %934, ptr %NEXT_PC, align 8
  %935 = load ptr, ptr %MEMORY, align 8
  %936 = call ptr @_ZN12_GLOBAL__N_16DoINT3EP6MemoryR5State3RnWImE(ptr %935, ptr %state, ptr undef)
  store ptr %936, ptr %MEMORY, align 8
  %937 = load i64, ptr %NEXT_PC, align 8
  store i64 %937, ptr %PC, align 8
  %938 = add i64 %937, 1
  store i64 %938, ptr %NEXT_PC, align 8
  %939 = load ptr, ptr %MEMORY, align 8
  %940 = call ptr @_ZN12_GLOBAL__N_16DoINT3EP6MemoryR5State3RnWImE(ptr %939, ptr %state, ptr undef)
  store ptr %940, ptr %MEMORY, align 8
  %941 = load i64, ptr %NEXT_PC, align 8
  store i64 %941, ptr %PC, align 8
  %942 = add i64 %941, 2
  store i64 %942, ptr %NEXT_PC, align 8
  %943 = load i64, ptr %RAX, align 8
  %944 = load i32, ptr %EAX, align 4
  %945 = zext i32 %944 to i64
  %946 = load ptr, ptr %MEMORY, align 8
  %947 = call ptr @_ZN12_GLOBAL__N_13XORI3RnWImE2RnIjLb1EES4_EEP6MemoryS6_R5StateT_T0_T1_(ptr %946, ptr %state, ptr %RAX, i64 %943, i64 %945)
  store ptr %947, ptr %MEMORY, align 8
  %948 = load i64, ptr %NEXT_PC, align 8
  store i64 %948, ptr %PC, align 8
  %949 = add i64 %948, 1
  store i64 %949, ptr %NEXT_PC, align 8
  %950 = load ptr, ptr %MEMORY, align 8
  %951 = call ptr @_ZN12_GLOBAL__N_13RETEP6MemoryR5State3RnWImE(ptr %950, ptr %state, ptr %NEXT_PC)
  store ptr %951, ptr %MEMORY, align 8
  ret ptr %memory

bb_5395658243:                                    ; No predecessors!
  %952 = load i64, ptr %NEXT_PC, align 8
  store i64 %952, ptr %PC, align 8
  %953 = add i64 %952, 1
  store i64 %953, ptr %NEXT_PC, align 8
  %954 = load ptr, ptr %MEMORY, align 8
  %955 = call ptr @_ZN12_GLOBAL__N_16DoINT3EP6MemoryR5State3RnWImE(ptr %954, ptr %state, ptr undef)
  store ptr %955, ptr %MEMORY, align 8
  %956 = load i64, ptr %NEXT_PC, align 8
  store i64 %956, ptr %PC, align 8
  %957 = add i64 %956, 1
  store i64 %957, ptr %NEXT_PC, align 8
  %958 = load ptr, ptr %MEMORY, align 8
  %959 = call ptr @_ZN12_GLOBAL__N_16DoINT3EP6MemoryR5State3RnWImE(ptr %958, ptr %state, ptr undef)
  store ptr %959, ptr %MEMORY, align 8
  %960 = load i64, ptr %NEXT_PC, align 8
  store i64 %960, ptr %PC, align 8
  %961 = add i64 %960, 1
  store i64 %961, ptr %NEXT_PC, align 8
  %962 = load ptr, ptr %MEMORY, align 8
  %963 = call ptr @_ZN12_GLOBAL__N_16DoINT3EP6MemoryR5State3RnWImE(ptr %962, ptr %state, ptr undef)
  store ptr %963, ptr %MEMORY, align 8
  %964 = load i64, ptr %NEXT_PC, align 8
  store i64 %964, ptr %PC, align 8
  %965 = add i64 %964, 1
  store i64 %965, ptr %NEXT_PC, align 8
  %966 = load ptr, ptr %MEMORY, align 8
  %967 = call ptr @_ZN12_GLOBAL__N_16DoINT3EP6MemoryR5State3RnWImE(ptr %966, ptr %state, ptr undef)
  store ptr %967, ptr %MEMORY, align 8
  %968 = load i64, ptr %NEXT_PC, align 8
  store i64 %968, ptr %PC, align 8
  %969 = add i64 %968, 1
  store i64 %969, ptr %NEXT_PC, align 8
  %970 = load ptr, ptr %MEMORY, align 8
  %971 = call ptr @_ZN12_GLOBAL__N_16DoINT3EP6MemoryR5State3RnWImE(ptr %970, ptr %state, ptr undef)
  store ptr %971, ptr %MEMORY, align 8
  %972 = load i64, ptr %NEXT_PC, align 8
  store i64 %972, ptr %PC, align 8
  %973 = add i64 %972, 1
  store i64 %973, ptr %NEXT_PC, align 8
  %974 = load ptr, ptr %MEMORY, align 8
  %975 = call ptr @_ZN12_GLOBAL__N_16DoINT3EP6MemoryR5State3RnWImE(ptr %974, ptr %state, ptr undef)
  store ptr %975, ptr %MEMORY, align 8
  %976 = load i64, ptr %NEXT_PC, align 8
  store i64 %976, ptr %PC, align 8
  %977 = add i64 %976, 1
  store i64 %977, ptr %NEXT_PC, align 8
  %978 = load ptr, ptr %MEMORY, align 8
  %979 = call ptr @_ZN12_GLOBAL__N_16DoINT3EP6MemoryR5State3RnWImE(ptr %978, ptr %state, ptr undef)
  store ptr %979, ptr %MEMORY, align 8
  %980 = load i64, ptr %NEXT_PC, align 8
  store i64 %980, ptr %PC, align 8
  %981 = add i64 %980, 1
  store i64 %981, ptr %NEXT_PC, align 8
  %982 = load ptr, ptr %MEMORY, align 8
  %983 = call ptr @_ZN12_GLOBAL__N_16DoINT3EP6MemoryR5State3RnWImE(ptr %982, ptr %state, ptr undef)
  store ptr %983, ptr %MEMORY, align 8
  %984 = load i64, ptr %NEXT_PC, align 8
  store i64 %984, ptr %PC, align 8
  %985 = add i64 %984, 1
  store i64 %985, ptr %NEXT_PC, align 8
  %986 = load ptr, ptr %MEMORY, align 8
  %987 = call ptr @_ZN12_GLOBAL__N_16DoINT3EP6MemoryR5State3RnWImE(ptr %986, ptr %state, ptr undef)
  store ptr %987, ptr %MEMORY, align 8
  %988 = load i64, ptr %NEXT_PC, align 8
  store i64 %988, ptr %PC, align 8
  %989 = add i64 %988, 1
  store i64 %989, ptr %NEXT_PC, align 8
  %990 = load ptr, ptr %MEMORY, align 8
  %991 = call ptr @_ZN12_GLOBAL__N_16DoINT3EP6MemoryR5State3RnWImE(ptr %990, ptr %state, ptr undef)
  store ptr %991, ptr %MEMORY, align 8
  %992 = load i64, ptr %NEXT_PC, align 8
  store i64 %992, ptr %PC, align 8
  %993 = add i64 %992, 1
  store i64 %993, ptr %NEXT_PC, align 8
  %994 = load ptr, ptr %MEMORY, align 8
  %995 = call ptr @_ZN12_GLOBAL__N_16DoINT3EP6MemoryR5State3RnWImE(ptr %994, ptr %state, ptr undef)
  store ptr %995, ptr %MEMORY, align 8
  %996 = load i64, ptr %NEXT_PC, align 8
  store i64 %996, ptr %PC, align 8
  %997 = add i64 %996, 1
  store i64 %997, ptr %NEXT_PC, align 8
  %998 = load ptr, ptr %MEMORY, align 8
  %999 = call ptr @_ZN12_GLOBAL__N_16DoINT3EP6MemoryR5State3RnWImE(ptr %998, ptr %state, ptr undef)
  store ptr %999, ptr %MEMORY, align 8
  %1000 = load i64, ptr %NEXT_PC, align 8
  store i64 %1000, ptr %PC, align 8
  %1001 = add i64 %1000, 1
  store i64 %1001, ptr %NEXT_PC, align 8
  %1002 = load ptr, ptr %MEMORY, align 8
  %1003 = call ptr @_ZN12_GLOBAL__N_16DoINT3EP6MemoryR5State3RnWImE(ptr %1002, ptr %state, ptr undef)
  store ptr %1003, ptr %MEMORY, align 8
  %1004 = load i64, ptr %NEXT_PC, align 8
  store i64 %1004, ptr %PC, align 8
  %1005 = add i64 %1004, 4
  store i64 %1005, ptr %NEXT_PC, align 8
  %1006 = load i64, ptr %RCX, align 8
  %1007 = add i64 %1006, 8
  %1008 = load ptr, ptr %MEMORY, align 8
  %1009 = call ptr @_ZN12_GLOBAL__N_13MOVI3RnWImE2MnImEEEP6MemoryS6_R5StateT_T0_(ptr %1008, ptr %state, ptr %RDX, i64 %1007)
  store ptr %1009, ptr %MEMORY, align 8
  %1010 = load i64, ptr %NEXT_PC, align 8
  store i64 %1010, ptr %PC, align 8
  %1011 = add i64 %1010, 3
  store i64 %1011, ptr %NEXT_PC, align 8
  %1012 = load i64, ptr %RCX, align 8
  %1013 = add i64 %1012, 20
  %1014 = load ptr, ptr %MEMORY, align 8
  %1015 = call ptr @_ZN12_GLOBAL__N_13MOVI3RnWImE2MnIjEEEP6MemoryS6_R5StateT_T0_(ptr %1014, ptr %state, ptr %RAX, i64 %1013)
  store ptr %1015, ptr %MEMORY, align 8
  %1016 = load i64, ptr %NEXT_PC, align 8
  store i64 %1016, ptr %PC, align 8
  %1017 = add i64 %1016, 3
  store i64 %1017, ptr %NEXT_PC, align 8
  %1018 = load i64, ptr %RDX, align 8
  %1019 = load i64, ptr %RDX, align 8
  %1020 = load ptr, ptr %MEMORY, align 8
  %1021 = call ptr @_ZN12_GLOBAL__N_14TESTI2RnImLb1EES2_EEP6MemoryS4_R5StateT_T0_(ptr %1020, ptr %state, i64 %1018, i64 %1019)
  store ptr %1021, ptr %MEMORY, align 8
  %1022 = load i64, ptr %NEXT_PC, align 8
  store i64 %1022, ptr %PC, align 8
  %1023 = add i64 %1022, 2
  store i64 %1023, ptr %NEXT_PC, align 8
  %1024 = load i64, ptr %NEXT_PC, align 8
  %1025 = add i64 %1024, 16
  %1026 = load i64, ptr %NEXT_PC, align 8
  %1027 = load ptr, ptr %MEMORY, align 8
  %1028 = call ptr @_ZN12_GLOBAL__N_12JZEP6MemoryR5State3RnWIhE2InImES7_S4_ImE(ptr %1027, ptr %state, ptr %BRANCH_TAKEN, i64 %1025, i64 %1026, ptr %NEXT_PC)
  store ptr %1028, ptr %MEMORY, align 8
  br i1 true, label %bb_5395658284, label %bb_5395658268

bb_5395658268:                                    ; preds = %bb_5395658243
  %1029 = load i64, ptr %NEXT_PC, align 8
  store i64 %1029, ptr %PC, align 8
  %1030 = add i64 %1029, 4
  store i64 %1030, ptr %NEXT_PC, align 8
  %1031 = load i64, ptr %RAX, align 8
  %1032 = load ptr, ptr %MEMORY, align 8
  %1033 = call ptr @_ZN12_GLOBAL__N_18NOP_IMPLIJ2MnIjEEEEP6MemoryS4_R5StateDpT_(ptr %1032, ptr %state, i64 %1031)
  store ptr %1033, ptr %MEMORY, align 8
  br label %bb_5395658272

bb_5395658272:                                    ; preds = %bb_5395658272, %bb_5395658268
  %1034 = load i64, ptr %NEXT_PC, align 8
  store i64 %1034, ptr %PC, align 8
  %1035 = add i64 %1034, 3
  store i64 %1035, ptr %NEXT_PC, align 8
  %1036 = load i64, ptr %RAX, align 8
  %1037 = load i64, ptr %RDX, align 8
  %1038 = add i64 %1037, 20
  %1039 = load ptr, ptr %MEMORY, align 8
  %1040 = call ptr @_ZN12_GLOBAL__N_13ADDI3RnWImE2RnIjLb1EE2MnIjEEEP6MemoryS8_R5StateT_T0_T1_(ptr %1039, ptr %state, ptr %RAX, i64 %1036, i64 %1038)
  store ptr %1040, ptr %MEMORY, align 8
  %1041 = load i64, ptr %NEXT_PC, align 8
  store i64 %1041, ptr %PC, align 8
  %1042 = add i64 %1041, 4
  store i64 %1042, ptr %NEXT_PC, align 8
  %1043 = load i64, ptr %RDX, align 8
  %1044 = add i64 %1043, 8
  %1045 = load ptr, ptr %MEMORY, align 8
  %1046 = call ptr @_ZN12_GLOBAL__N_13MOVI3RnWImE2MnImEEEP6MemoryS6_R5StateT_T0_(ptr %1045, ptr %state, ptr %RDX, i64 %1044)
  store ptr %1046, ptr %MEMORY, align 8
  %1047 = load i64, ptr %NEXT_PC, align 8
  store i64 %1047, ptr %PC, align 8
  %1048 = add i64 %1047, 3
  store i64 %1048, ptr %NEXT_PC, align 8
  %1049 = load i64, ptr %RDX, align 8
  %1050 = load i64, ptr %RDX, align 8
  %1051 = load ptr, ptr %MEMORY, align 8
  %1052 = call ptr @_ZN12_GLOBAL__N_14TESTI2RnImLb1EES2_EEP6MemoryS4_R5StateT_T0_(ptr %1051, ptr %state, i64 %1049, i64 %1050)
  store ptr %1052, ptr %MEMORY, align 8
  %1053 = load i64, ptr %NEXT_PC, align 8
  store i64 %1053, ptr %PC, align 8
  %1054 = add i64 %1053, 2
  store i64 %1054, ptr %NEXT_PC, align 8
  %1055 = load i64, ptr %NEXT_PC, align 8
  %1056 = sub i64 %1055, 12
  %1057 = load i64, ptr %NEXT_PC, align 8
  %1058 = load ptr, ptr %MEMORY, align 8
  %1059 = call ptr @_ZN12_GLOBAL__N_13JNZEP6MemoryR5State3RnWIhE2InImES7_S4_ImE(ptr %1058, ptr %state, ptr %BRANCH_TAKEN, i64 %1056, i64 %1057, ptr %NEXT_PC)
  store ptr %1059, ptr %MEMORY, align 8
  br i1 true, label %bb_5395658272, label %bb_5395658284

bb_5395658284:                                    ; preds = %bb_5395658272, %bb_5395658243
  %1060 = load i64, ptr %NEXT_PC, align 8
  store i64 %1060, ptr %PC, align 8
  %1061 = add i64 %1060, 1
  store i64 %1061, ptr %NEXT_PC, align 8
  %1062 = load ptr, ptr %MEMORY, align 8
  %1063 = call ptr @_ZN12_GLOBAL__N_13RETEP6MemoryR5State3RnWImE(ptr %1062, ptr %state, ptr %NEXT_PC)
  store ptr %1063, ptr %MEMORY, align 8
  ret ptr %memory

bb_5395658285:                                    ; No predecessors!
  %1064 = load i64, ptr %NEXT_PC, align 8
  store i64 %1064, ptr %PC, align 8
  %1065 = add i64 %1064, 1
  store i64 %1065, ptr %NEXT_PC, align 8
  %1066 = load ptr, ptr %MEMORY, align 8
  %1067 = call ptr @_ZN12_GLOBAL__N_16DoINT3EP6MemoryR5State3RnWImE(ptr %1066, ptr %state, ptr undef)
  store ptr %1067, ptr %MEMORY, align 8
  %1068 = load i64, ptr %NEXT_PC, align 8
  store i64 %1068, ptr %PC, align 8
  %1069 = add i64 %1068, 1
  store i64 %1069, ptr %NEXT_PC, align 8
  %1070 = load ptr, ptr %MEMORY, align 8
  %1071 = call ptr @_ZN12_GLOBAL__N_16DoINT3EP6MemoryR5State3RnWImE(ptr %1070, ptr %state, ptr undef)
  store ptr %1071, ptr %MEMORY, align 8
  %1072 = load i64, ptr %NEXT_PC, align 8
  store i64 %1072, ptr %PC, align 8
  %1073 = add i64 %1072, 1
  store i64 %1073, ptr %NEXT_PC, align 8
  %1074 = load ptr, ptr %MEMORY, align 8
  %1075 = call ptr @_ZN12_GLOBAL__N_16DoINT3EP6MemoryR5State3RnWImE(ptr %1074, ptr %state, ptr undef)
  store ptr %1075, ptr %MEMORY, align 8
  %1076 = load i64, ptr %NEXT_PC, align 8
  store i64 %1076, ptr %PC, align 8
  %1077 = add i64 %1076, 1
  store i64 %1077, ptr %NEXT_PC, align 8
  %1078 = load ptr, ptr %MEMORY, align 8
  %1079 = call ptr @_ZN12_GLOBAL__N_16DoINT3EP6MemoryR5State3RnWImE(ptr %1078, ptr %state, ptr undef)
  store ptr %1079, ptr %MEMORY, align 8
  %1080 = load i64, ptr %NEXT_PC, align 8
  store i64 %1080, ptr %PC, align 8
  %1081 = add i64 %1080, 1
  store i64 %1081, ptr %NEXT_PC, align 8
  %1082 = load ptr, ptr %MEMORY, align 8
  %1083 = call ptr @_ZN12_GLOBAL__N_16DoINT3EP6MemoryR5State3RnWImE(ptr %1082, ptr %state, ptr undef)
  store ptr %1083, ptr %MEMORY, align 8
  %1084 = load i64, ptr %NEXT_PC, align 8
  store i64 %1084, ptr %PC, align 8
  %1085 = add i64 %1084, 1
  store i64 %1085, ptr %NEXT_PC, align 8
  %1086 = load ptr, ptr %MEMORY, align 8
  %1087 = call ptr @_ZN12_GLOBAL__N_16DoINT3EP6MemoryR5State3RnWImE(ptr %1086, ptr %state, ptr undef)
  store ptr %1087, ptr %MEMORY, align 8
  %1088 = load i64, ptr %NEXT_PC, align 8
  store i64 %1088, ptr %PC, align 8
  %1089 = add i64 %1088, 1
  store i64 %1089, ptr %NEXT_PC, align 8
  %1090 = load ptr, ptr %MEMORY, align 8
  %1091 = call ptr @_ZN12_GLOBAL__N_16DoINT3EP6MemoryR5State3RnWImE(ptr %1090, ptr %state, ptr undef)
  store ptr %1091, ptr %MEMORY, align 8
  %1092 = load i64, ptr %NEXT_PC, align 8
  store i64 %1092, ptr %PC, align 8
  %1093 = add i64 %1092, 1
  store i64 %1093, ptr %NEXT_PC, align 8
  %1094 = load ptr, ptr %MEMORY, align 8
  %1095 = call ptr @_ZN12_GLOBAL__N_16DoINT3EP6MemoryR5State3RnWImE(ptr %1094, ptr %state, ptr undef)
  store ptr %1095, ptr %MEMORY, align 8
  %1096 = load i64, ptr %NEXT_PC, align 8
  store i64 %1096, ptr %PC, align 8
  %1097 = add i64 %1096, 1
  store i64 %1097, ptr %NEXT_PC, align 8
  %1098 = load ptr, ptr %MEMORY, align 8
  %1099 = call ptr @_ZN12_GLOBAL__N_16DoINT3EP6MemoryR5State3RnWImE(ptr %1098, ptr %state, ptr undef)
  store ptr %1099, ptr %MEMORY, align 8
  %1100 = load i64, ptr %NEXT_PC, align 8
  store i64 %1100, ptr %PC, align 8
  %1101 = add i64 %1100, 1
  store i64 %1101, ptr %NEXT_PC, align 8
  %1102 = load ptr, ptr %MEMORY, align 8
  %1103 = call ptr @_ZN12_GLOBAL__N_16DoINT3EP6MemoryR5State3RnWImE(ptr %1102, ptr %state, ptr undef)
  store ptr %1103, ptr %MEMORY, align 8
  %1104 = load i64, ptr %NEXT_PC, align 8
  store i64 %1104, ptr %PC, align 8
  %1105 = add i64 %1104, 1
  store i64 %1105, ptr %NEXT_PC, align 8
  %1106 = load ptr, ptr %MEMORY, align 8
  %1107 = call ptr @_ZN12_GLOBAL__N_16DoINT3EP6MemoryR5State3RnWImE(ptr %1106, ptr %state, ptr undef)
  store ptr %1107, ptr %MEMORY, align 8
  %1108 = load i64, ptr %NEXT_PC, align 8
  store i64 %1108, ptr %PC, align 8
  %1109 = add i64 %1108, 1
  store i64 %1109, ptr %NEXT_PC, align 8
  %1110 = load ptr, ptr %MEMORY, align 8
  %1111 = call ptr @_ZN12_GLOBAL__N_16DoINT3EP6MemoryR5State3RnWImE(ptr %1110, ptr %state, ptr undef)
  store ptr %1111, ptr %MEMORY, align 8
  %1112 = load i64, ptr %NEXT_PC, align 8
  store i64 %1112, ptr %PC, align 8
  %1113 = add i64 %1112, 1
  store i64 %1113, ptr %NEXT_PC, align 8
  %1114 = load ptr, ptr %MEMORY, align 8
  %1115 = call ptr @_ZN12_GLOBAL__N_16DoINT3EP6MemoryR5State3RnWImE(ptr %1114, ptr %state, ptr undef)
  store ptr %1115, ptr %MEMORY, align 8
  %1116 = load i64, ptr %NEXT_PC, align 8
  store i64 %1116, ptr %PC, align 8
  %1117 = add i64 %1116, 1
  store i64 %1117, ptr %NEXT_PC, align 8
  %1118 = load ptr, ptr %MEMORY, align 8
  %1119 = call ptr @_ZN12_GLOBAL__N_16DoINT3EP6MemoryR5State3RnWImE(ptr %1118, ptr %state, ptr undef)
  store ptr %1119, ptr %MEMORY, align 8
  %1120 = load i64, ptr %NEXT_PC, align 8
  store i64 %1120, ptr %PC, align 8
  %1121 = add i64 %1120, 1
  store i64 %1121, ptr %NEXT_PC, align 8
  %1122 = load ptr, ptr %MEMORY, align 8
  %1123 = call ptr @_ZN12_GLOBAL__N_16DoINT3EP6MemoryR5State3RnWImE(ptr %1122, ptr %state, ptr undef)
  store ptr %1123, ptr %MEMORY, align 8
  %1124 = load i64, ptr %NEXT_PC, align 8
  store i64 %1124, ptr %PC, align 8
  %1125 = add i64 %1124, 1
  store i64 %1125, ptr %NEXT_PC, align 8
  %1126 = load ptr, ptr %MEMORY, align 8
  %1127 = call ptr @_ZN12_GLOBAL__N_16DoINT3EP6MemoryR5State3RnWImE(ptr %1126, ptr %state, ptr undef)
  store ptr %1127, ptr %MEMORY, align 8
  %1128 = load i64, ptr %NEXT_PC, align 8
  store i64 %1128, ptr %PC, align 8
  %1129 = add i64 %1128, 1
  store i64 %1129, ptr %NEXT_PC, align 8
  %1130 = load ptr, ptr %MEMORY, align 8
  %1131 = call ptr @_ZN12_GLOBAL__N_16DoINT3EP6MemoryR5State3RnWImE(ptr %1130, ptr %state, ptr undef)
  store ptr %1131, ptr %MEMORY, align 8
  %1132 = load i64, ptr %NEXT_PC, align 8
  store i64 %1132, ptr %PC, align 8
  %1133 = add i64 %1132, 1
  store i64 %1133, ptr %NEXT_PC, align 8
  %1134 = load ptr, ptr %MEMORY, align 8
  %1135 = call ptr @_ZN12_GLOBAL__N_16DoINT3EP6MemoryR5State3RnWImE(ptr %1134, ptr %state, ptr undef)
  store ptr %1135, ptr %MEMORY, align 8
  %1136 = load i64, ptr %NEXT_PC, align 8
  store i64 %1136, ptr %PC, align 8
  %1137 = add i64 %1136, 1
  store i64 %1137, ptr %NEXT_PC, align 8
  %1138 = load ptr, ptr %MEMORY, align 8
  %1139 = call ptr @_ZN12_GLOBAL__N_16DoINT3EP6MemoryR5State3RnWImE(ptr %1138, ptr %state, ptr undef)
  store ptr %1139, ptr %MEMORY, align 8
  %1140 = load i64, ptr %NEXT_PC, align 8
  store i64 %1140, ptr %PC, align 8
  %1141 = add i64 %1140, 2
  store i64 %1141, ptr %NEXT_PC, align 8
  %1142 = load i64, ptr %RAX, align 8
  %1143 = load i32, ptr %EAX, align 4
  %1144 = zext i32 %1143 to i64
  %1145 = load ptr, ptr %MEMORY, align 8
  %1146 = call ptr @_ZN12_GLOBAL__N_13XORI3RnWImE2RnIjLb1EES4_EEP6MemoryS6_R5StateT_T0_T1_(ptr %1145, ptr %state, ptr %RAX, i64 %1142, i64 %1144)
  store ptr %1146, ptr %MEMORY, align 8
  %1147 = load i64, ptr %NEXT_PC, align 8
  store i64 %1147, ptr %PC, align 8
  %1148 = add i64 %1147, 1
  store i64 %1148, ptr %NEXT_PC, align 8
  %1149 = load ptr, ptr %MEMORY, align 8
  %1150 = call ptr @_ZN12_GLOBAL__N_13RETEP6MemoryR5State3RnWImE(ptr %1149, ptr %state, ptr %NEXT_PC)
  store ptr %1150, ptr %MEMORY, align 8
  ret ptr %memory

bb_5395658307:                                    ; No predecessors!
  %1151 = load i64, ptr %NEXT_PC, align 8
  store i64 %1151, ptr %PC, align 8
  %1152 = add i64 %1151, 1
  store i64 %1152, ptr %NEXT_PC, align 8
  %1153 = load ptr, ptr %MEMORY, align 8
  %1154 = call ptr @_ZN12_GLOBAL__N_16DoINT3EP6MemoryR5State3RnWImE(ptr %1153, ptr %state, ptr undef)
  store ptr %1154, ptr %MEMORY, align 8
  %1155 = load i64, ptr %NEXT_PC, align 8
  store i64 %1155, ptr %PC, align 8
  %1156 = add i64 %1155, 1
  store i64 %1156, ptr %NEXT_PC, align 8
  %1157 = load ptr, ptr %MEMORY, align 8
  %1158 = call ptr @_ZN12_GLOBAL__N_16DoINT3EP6MemoryR5State3RnWImE(ptr %1157, ptr %state, ptr undef)
  store ptr %1158, ptr %MEMORY, align 8
  %1159 = load i64, ptr %NEXT_PC, align 8
  store i64 %1159, ptr %PC, align 8
  %1160 = add i64 %1159, 1
  store i64 %1160, ptr %NEXT_PC, align 8
  %1161 = load ptr, ptr %MEMORY, align 8
  %1162 = call ptr @_ZN12_GLOBAL__N_16DoINT3EP6MemoryR5State3RnWImE(ptr %1161, ptr %state, ptr undef)
  store ptr %1162, ptr %MEMORY, align 8
  %1163 = load i64, ptr %NEXT_PC, align 8
  store i64 %1163, ptr %PC, align 8
  %1164 = add i64 %1163, 1
  store i64 %1164, ptr %NEXT_PC, align 8
  %1165 = load ptr, ptr %MEMORY, align 8
  %1166 = call ptr @_ZN12_GLOBAL__N_16DoINT3EP6MemoryR5State3RnWImE(ptr %1165, ptr %state, ptr undef)
  store ptr %1166, ptr %MEMORY, align 8
  %1167 = load i64, ptr %NEXT_PC, align 8
  store i64 %1167, ptr %PC, align 8
  %1168 = add i64 %1167, 1
  store i64 %1168, ptr %NEXT_PC, align 8
  %1169 = load ptr, ptr %MEMORY, align 8
  %1170 = call ptr @_ZN12_GLOBAL__N_16DoINT3EP6MemoryR5State3RnWImE(ptr %1169, ptr %state, ptr undef)
  store ptr %1170, ptr %MEMORY, align 8
  %1171 = load i64, ptr %NEXT_PC, align 8
  store i64 %1171, ptr %PC, align 8
  %1172 = add i64 %1171, 1
  store i64 %1172, ptr %NEXT_PC, align 8
  %1173 = load ptr, ptr %MEMORY, align 8
  %1174 = call ptr @_ZN12_GLOBAL__N_16DoINT3EP6MemoryR5State3RnWImE(ptr %1173, ptr %state, ptr undef)
  store ptr %1174, ptr %MEMORY, align 8
  %1175 = load i64, ptr %NEXT_PC, align 8
  store i64 %1175, ptr %PC, align 8
  %1176 = add i64 %1175, 1
  store i64 %1176, ptr %NEXT_PC, align 8
  %1177 = load ptr, ptr %MEMORY, align 8
  %1178 = call ptr @_ZN12_GLOBAL__N_16DoINT3EP6MemoryR5State3RnWImE(ptr %1177, ptr %state, ptr undef)
  store ptr %1178, ptr %MEMORY, align 8
  %1179 = load i64, ptr %NEXT_PC, align 8
  store i64 %1179, ptr %PC, align 8
  %1180 = add i64 %1179, 1
  store i64 %1180, ptr %NEXT_PC, align 8
  %1181 = load ptr, ptr %MEMORY, align 8
  %1182 = call ptr @_ZN12_GLOBAL__N_16DoINT3EP6MemoryR5State3RnWImE(ptr %1181, ptr %state, ptr undef)
  store ptr %1182, ptr %MEMORY, align 8
  %1183 = load i64, ptr %NEXT_PC, align 8
  store i64 %1183, ptr %PC, align 8
  %1184 = add i64 %1183, 1
  store i64 %1184, ptr %NEXT_PC, align 8
  %1185 = load ptr, ptr %MEMORY, align 8
  %1186 = call ptr @_ZN12_GLOBAL__N_16DoINT3EP6MemoryR5State3RnWImE(ptr %1185, ptr %state, ptr undef)
  store ptr %1186, ptr %MEMORY, align 8
  %1187 = load i64, ptr %NEXT_PC, align 8
  store i64 %1187, ptr %PC, align 8
  %1188 = add i64 %1187, 1
  store i64 %1188, ptr %NEXT_PC, align 8
  %1189 = load ptr, ptr %MEMORY, align 8
  %1190 = call ptr @_ZN12_GLOBAL__N_16DoINT3EP6MemoryR5State3RnWImE(ptr %1189, ptr %state, ptr undef)
  store ptr %1190, ptr %MEMORY, align 8
  %1191 = load i64, ptr %NEXT_PC, align 8
  store i64 %1191, ptr %PC, align 8
  %1192 = add i64 %1191, 1
  store i64 %1192, ptr %NEXT_PC, align 8
  %1193 = load ptr, ptr %MEMORY, align 8
  %1194 = call ptr @_ZN12_GLOBAL__N_16DoINT3EP6MemoryR5State3RnWImE(ptr %1193, ptr %state, ptr undef)
  store ptr %1194, ptr %MEMORY, align 8
  %1195 = load i64, ptr %NEXT_PC, align 8
  store i64 %1195, ptr %PC, align 8
  %1196 = add i64 %1195, 1
  store i64 %1196, ptr %NEXT_PC, align 8
  %1197 = load ptr, ptr %MEMORY, align 8
  %1198 = call ptr @_ZN12_GLOBAL__N_16DoINT3EP6MemoryR5State3RnWImE(ptr %1197, ptr %state, ptr undef)
  store ptr %1198, ptr %MEMORY, align 8
  %1199 = load i64, ptr %NEXT_PC, align 8
  store i64 %1199, ptr %PC, align 8
  %1200 = add i64 %1199, 1
  store i64 %1200, ptr %NEXT_PC, align 8
  %1201 = load ptr, ptr %MEMORY, align 8
  %1202 = call ptr @_ZN12_GLOBAL__N_16DoINT3EP6MemoryR5State3RnWImE(ptr %1201, ptr %state, ptr undef)
  store ptr %1202, ptr %MEMORY, align 8
  %1203 = load i64, ptr %NEXT_PC, align 8
  store i64 %1203, ptr %PC, align 8
  %1204 = add i64 %1203, 3
  store i64 %1204, ptr %NEXT_PC, align 8
  %1205 = load i64, ptr %RCX, align 8
  %1206 = add i64 %1205, 20
  %1207 = load ptr, ptr %MEMORY, align 8
  %1208 = call ptr @_ZN12_GLOBAL__N_13MOVI3RnWImE2MnIjEEEP6MemoryS6_R5StateT_T0_(ptr %1207, ptr %state, ptr %RAX, i64 %1206)
  store ptr %1208, ptr %MEMORY, align 8
  %1209 = load i64, ptr %NEXT_PC, align 8
  store i64 %1209, ptr %PC, align 8
  %1210 = add i64 %1209, 1
  store i64 %1210, ptr %NEXT_PC, align 8
  %1211 = load ptr, ptr %MEMORY, align 8
  %1212 = call ptr @_ZN12_GLOBAL__N_13RETEP6MemoryR5State3RnWImE(ptr %1211, ptr %state, ptr %NEXT_PC)
  store ptr %1212, ptr %MEMORY, align 8
  ret ptr %memory

bb_5395658324:                                    ; No predecessors!
  %1213 = load i64, ptr %NEXT_PC, align 8
  store i64 %1213, ptr %PC, align 8
  %1214 = add i64 %1213, 1
  store i64 %1214, ptr %NEXT_PC, align 8
  %1215 = load ptr, ptr %MEMORY, align 8
  %1216 = call ptr @_ZN12_GLOBAL__N_16DoINT3EP6MemoryR5State3RnWImE(ptr %1215, ptr %state, ptr undef)
  store ptr %1216, ptr %MEMORY, align 8
  %1217 = load i64, ptr %NEXT_PC, align 8
  store i64 %1217, ptr %PC, align 8
  %1218 = add i64 %1217, 1
  store i64 %1218, ptr %NEXT_PC, align 8
  %1219 = load ptr, ptr %MEMORY, align 8
  %1220 = call ptr @_ZN12_GLOBAL__N_16DoINT3EP6MemoryR5State3RnWImE(ptr %1219, ptr %state, ptr undef)
  store ptr %1220, ptr %MEMORY, align 8
  %1221 = load i64, ptr %NEXT_PC, align 8
  store i64 %1221, ptr %PC, align 8
  %1222 = add i64 %1221, 1
  store i64 %1222, ptr %NEXT_PC, align 8
  %1223 = load ptr, ptr %MEMORY, align 8
  %1224 = call ptr @_ZN12_GLOBAL__N_16DoINT3EP6MemoryR5State3RnWImE(ptr %1223, ptr %state, ptr undef)
  store ptr %1224, ptr %MEMORY, align 8
  %1225 = load i64, ptr %NEXT_PC, align 8
  store i64 %1225, ptr %PC, align 8
  %1226 = add i64 %1225, 1
  store i64 %1226, ptr %NEXT_PC, align 8
  %1227 = load ptr, ptr %MEMORY, align 8
  %1228 = call ptr @_ZN12_GLOBAL__N_16DoINT3EP6MemoryR5State3RnWImE(ptr %1227, ptr %state, ptr undef)
  store ptr %1228, ptr %MEMORY, align 8
  %1229 = load i64, ptr %NEXT_PC, align 8
  store i64 %1229, ptr %PC, align 8
  %1230 = add i64 %1229, 1
  store i64 %1230, ptr %NEXT_PC, align 8
  %1231 = load ptr, ptr %MEMORY, align 8
  %1232 = call ptr @_ZN12_GLOBAL__N_16DoINT3EP6MemoryR5State3RnWImE(ptr %1231, ptr %state, ptr undef)
  store ptr %1232, ptr %MEMORY, align 8
  %1233 = load i64, ptr %NEXT_PC, align 8
  store i64 %1233, ptr %PC, align 8
  %1234 = add i64 %1233, 1
  store i64 %1234, ptr %NEXT_PC, align 8
  %1235 = load ptr, ptr %MEMORY, align 8
  %1236 = call ptr @_ZN12_GLOBAL__N_16DoINT3EP6MemoryR5State3RnWImE(ptr %1235, ptr %state, ptr undef)
  store ptr %1236, ptr %MEMORY, align 8
  %1237 = load i64, ptr %NEXT_PC, align 8
  store i64 %1237, ptr %PC, align 8
  %1238 = add i64 %1237, 1
  store i64 %1238, ptr %NEXT_PC, align 8
  %1239 = load ptr, ptr %MEMORY, align 8
  %1240 = call ptr @_ZN12_GLOBAL__N_16DoINT3EP6MemoryR5State3RnWImE(ptr %1239, ptr %state, ptr undef)
  store ptr %1240, ptr %MEMORY, align 8
  %1241 = load i64, ptr %NEXT_PC, align 8
  store i64 %1241, ptr %PC, align 8
  %1242 = add i64 %1241, 1
  store i64 %1242, ptr %NEXT_PC, align 8
  %1243 = load ptr, ptr %MEMORY, align 8
  %1244 = call ptr @_ZN12_GLOBAL__N_16DoINT3EP6MemoryR5State3RnWImE(ptr %1243, ptr %state, ptr undef)
  store ptr %1244, ptr %MEMORY, align 8
  %1245 = load i64, ptr %NEXT_PC, align 8
  store i64 %1245, ptr %PC, align 8
  %1246 = add i64 %1245, 1
  store i64 %1246, ptr %NEXT_PC, align 8
  %1247 = load ptr, ptr %MEMORY, align 8
  %1248 = call ptr @_ZN12_GLOBAL__N_16DoINT3EP6MemoryR5State3RnWImE(ptr %1247, ptr %state, ptr undef)
  store ptr %1248, ptr %MEMORY, align 8
  %1249 = load i64, ptr %NEXT_PC, align 8
  store i64 %1249, ptr %PC, align 8
  %1250 = add i64 %1249, 1
  store i64 %1250, ptr %NEXT_PC, align 8
  %1251 = load ptr, ptr %MEMORY, align 8
  %1252 = call ptr @_ZN12_GLOBAL__N_16DoINT3EP6MemoryR5State3RnWImE(ptr %1251, ptr %state, ptr undef)
  store ptr %1252, ptr %MEMORY, align 8
  %1253 = load i64, ptr %NEXT_PC, align 8
  store i64 %1253, ptr %PC, align 8
  %1254 = add i64 %1253, 1
  store i64 %1254, ptr %NEXT_PC, align 8
  %1255 = load ptr, ptr %MEMORY, align 8
  %1256 = call ptr @_ZN12_GLOBAL__N_16DoINT3EP6MemoryR5State3RnWImE(ptr %1255, ptr %state, ptr undef)
  store ptr %1256, ptr %MEMORY, align 8
  %1257 = load i64, ptr %NEXT_PC, align 8
  store i64 %1257, ptr %PC, align 8
  %1258 = add i64 %1257, 1
  store i64 %1258, ptr %NEXT_PC, align 8
  %1259 = load ptr, ptr %MEMORY, align 8
  %1260 = call ptr @_ZN12_GLOBAL__N_16DoINT3EP6MemoryR5State3RnWImE(ptr %1259, ptr %state, ptr undef)
  store ptr %1260, ptr %MEMORY, align 8
  %1261 = load i64, ptr %NEXT_PC, align 8
  store i64 %1261, ptr %PC, align 8
  %1262 = add i64 %1261, 5
  store i64 %1262, ptr %NEXT_PC, align 8
  %1263 = load i64, ptr %RSP, align 8
  %1264 = add i64 %1263, 8
  %1265 = load i64, ptr %RBX, align 8
  %1266 = load ptr, ptr %MEMORY, align 8
  %1267 = call ptr @_ZN12_GLOBAL__N_13MOVI3MnWImE2RnImLb1EEEEP6MemoryS6_R5StateT_T0_(ptr %1266, ptr %state, i64 %1264, i64 %1265)
  store ptr %1267, ptr %MEMORY, align 8
  %1268 = load i64, ptr %NEXT_PC, align 8
  store i64 %1268, ptr %PC, align 8
  %1269 = add i64 %1268, 5
  store i64 %1269, ptr %NEXT_PC, align 8
  %1270 = load i64, ptr %RSP, align 8
  %1271 = add i64 %1270, 16
  %1272 = load i64, ptr %RSI, align 8
  %1273 = load ptr, ptr %MEMORY, align 8
  %1274 = call ptr @_ZN12_GLOBAL__N_13MOVI3MnWImE2RnImLb1EEEEP6MemoryS6_R5StateT_T0_(ptr %1273, ptr %state, i64 %1271, i64 %1272)
  store ptr %1274, ptr %MEMORY, align 8
  %1275 = load i64, ptr %NEXT_PC, align 8
  store i64 %1275, ptr %PC, align 8
  %1276 = add i64 %1275, 1
  store i64 %1276, ptr %NEXT_PC, align 8
  %1277 = load i64, ptr %RDI, align 8
  %1278 = load ptr, ptr %MEMORY, align 8
  %1279 = call ptr @_ZN12_GLOBAL__N_14PUSHI2InImEEEP6MemoryS4_R5StateT_(ptr %1278, ptr %state, i64 %1277)
  store ptr %1279, ptr %MEMORY, align 8
  %1280 = load i64, ptr %NEXT_PC, align 8
  store i64 %1280, ptr %PC, align 8
  %1281 = add i64 %1280, 4
  store i64 %1281, ptr %NEXT_PC, align 8
  %1282 = load i64, ptr %RSP, align 8
  %1283 = load ptr, ptr %MEMORY, align 8
  %1284 = call ptr @_ZN12_GLOBAL__N_13SUBI3RnWImE2RnImLb1EE2InImEEEP6MemoryS8_R5StateT_T0_T1_(ptr %1283, ptr %state, ptr %RSP, i64 %1282, i64 32)
  store ptr %1284, ptr %MEMORY, align 8
  %1285 = load i64, ptr %NEXT_PC, align 8
  store i64 %1285, ptr %PC, align 8
  %1286 = add i64 %1285, 2
  store i64 %1286, ptr %NEXT_PC, align 8
  %1287 = load i32, ptr %EDX, align 4
  %1288 = zext i32 %1287 to i64
  %1289 = load ptr, ptr %MEMORY, align 8
  %1290 = call ptr @_ZN12_GLOBAL__N_13MOVI3RnWImE2RnIjLb1EEEEP6MemoryS6_R5StateT_T0_(ptr %1289, ptr %state, ptr %RDI, i64 %1288)
  store ptr %1290, ptr %MEMORY, align 8
  %1291 = load i64, ptr %NEXT_PC, align 8
  store i64 %1291, ptr %PC, align 8
  %1292 = add i64 %1291, 3
  store i64 %1292, ptr %NEXT_PC, align 8
  %1293 = load i64, ptr %RCX, align 8
  %1294 = load ptr, ptr %MEMORY, align 8
  %1295 = call ptr @_ZN12_GLOBAL__N_13MOVI3RnWImE2RnImLb1EEEEP6MemoryS6_R5StateT_T0_(ptr %1294, ptr %state, ptr %RSI, i64 %1293)
  store ptr %1295, ptr %MEMORY, align 8
  %1296 = load i64, ptr %NEXT_PC, align 8
  store i64 %1296, ptr %PC, align 8
  %1297 = add i64 %1296, 3
  store i64 %1297, ptr %NEXT_PC, align 8
  %1298 = load i64, ptr %RCX, align 8
  %1299 = load ptr, ptr %MEMORY, align 8
  %1300 = call ptr @_ZN12_GLOBAL__N_13MOVI3RnWImE2RnImLb1EEEEP6MemoryS6_R5StateT_T0_(ptr %1299, ptr %state, ptr %RBX, i64 %1298)
  store ptr %1300, ptr %MEMORY, align 8
  %1301 = load i64, ptr %NEXT_PC, align 8
  store i64 %1301, ptr %PC, align 8
  %1302 = add i64 %1301, 5
  store i64 %1302, ptr %NEXT_PC, align 8
  %1303 = load i64, ptr %NEXT_PC, align 8
  %1304 = add i64 %1303, 212
  %1305 = load i64, ptr %NEXT_PC, align 8
  %1306 = load ptr, ptr %MEMORY, align 8
  %1307 = call ptr @_ZN12_GLOBAL__N_14CALLI2InImEEEP6MemoryS4_R5StateT_3RnWImES2_S9_(ptr %1306, ptr %state, i64 %1304, ptr %NEXT_PC, i64 %1305, ptr %RETURN_PC)
  store ptr %1307, ptr %MEMORY, align 8
  %1308 = load i64, ptr %NEXT_PC, align 8
  store i64 %1308, ptr %PC, align 8
  %1309 = add i64 %1308, 2
  store i64 %1309, ptr %NEXT_PC, align 8
  %1310 = load i64, ptr %RDI, align 8
  %1311 = load i32, ptr %EAX, align 4
  %1312 = zext i32 %1311 to i64
  %1313 = load ptr, ptr %MEMORY, align 8
  %1314 = call ptr @_ZN12_GLOBAL__N_13SUBI3RnWImE2RnIjLb1EES4_EEP6MemoryS6_R5StateT_T0_T1_(ptr %1313, ptr %state, ptr %RDI, i64 %1310, i64 %1312)
  store ptr %1314, ptr %MEMORY, align 8
  %1315 = load i64, ptr %NEXT_PC, align 8
  store i64 %1315, ptr %PC, align 8
  %1316 = add i64 %1315, 3
  store i64 %1316, ptr %NEXT_PC, align 8
  %1317 = load i64, ptr %RBX, align 8
  %1318 = load i64, ptr %RBX, align 8
  %1319 = load ptr, ptr %MEMORY, align 8
  %1320 = call ptr @_ZN12_GLOBAL__N_14TESTI2RnImLb1EES2_EEP6MemoryS4_R5StateT_T0_(ptr %1319, ptr %state, i64 %1317, i64 %1318)
  store ptr %1320, ptr %MEMORY, align 8
  %1321 = load i64, ptr %NEXT_PC, align 8
  store i64 %1321, ptr %PC, align 8
  %1322 = add i64 %1321, 2
  store i64 %1322, ptr %NEXT_PC, align 8
  %1323 = load i64, ptr %NEXT_PC, align 8
  %1324 = add i64 %1323, 14
  %1325 = load i64, ptr %NEXT_PC, align 8
  %1326 = load ptr, ptr %MEMORY, align 8
  %1327 = call ptr @_ZN12_GLOBAL__N_12JZEP6MemoryR5State3RnWIhE2InImES7_S4_ImE(ptr %1326, ptr %state, ptr %BRANCH_TAKEN, i64 %1324, i64 %1325, ptr %NEXT_PC)
  store ptr %1327, ptr %MEMORY, align 8
  br i1 true, label %bb_5395658385, label %bb_5395658371

bb_5395658371:                                    ; preds = %bb_5395658376, %bb_5395658324
  %1328 = load i64, ptr %NEXT_PC, align 8
  store i64 %1328, ptr %PC, align 8
  %1329 = add i64 %1328, 3
  store i64 %1329, ptr %NEXT_PC, align 8
  %1330 = load i64, ptr %RDI, align 8
  %1331 = load i64, ptr %RBX, align 8
  %1332 = add i64 %1331, 32
  %1333 = load ptr, ptr %MEMORY, align 8
  %1334 = call ptr @_ZN12_GLOBAL__N_13ADDI3RnWImE2RnIjLb1EE2MnIjEEEP6MemoryS8_R5StateT_T0_T1_(ptr %1333, ptr %state, ptr %RDI, i64 %1330, i64 %1332)
  store ptr %1334, ptr %MEMORY, align 8
  %1335 = load i64, ptr %NEXT_PC, align 8
  store i64 %1335, ptr %PC, align 8
  %1336 = add i64 %1335, 2
  store i64 %1336, ptr %NEXT_PC, align 8
  %1337 = load i64, ptr %NEXT_PC, align 8
  %1338 = add i64 %1337, 29
  %1339 = load i64, ptr %NEXT_PC, align 8
  %1340 = load ptr, ptr %MEMORY, align 8
  %1341 = call ptr @_ZN12_GLOBAL__N_13JNSEP6MemoryR5State3RnWIhE2InImES7_S4_ImE(ptr %1340, ptr %state, ptr %BRANCH_TAKEN, i64 %1338, i64 %1339, ptr %NEXT_PC)
  store ptr %1341, ptr %MEMORY, align 8
  br i1 true, label %bb_5395658405, label %bb_5395658376

bb_5395658376:                                    ; preds = %bb_5395658371
  %1342 = load i64, ptr %NEXT_PC, align 8
  store i64 %1342, ptr %PC, align 8
  %1343 = add i64 %1342, 4
  store i64 %1343, ptr %NEXT_PC, align 8
  %1344 = load i64, ptr %RBX, align 8
  %1345 = add i64 %1344, 8
  %1346 = load ptr, ptr %MEMORY, align 8
  %1347 = call ptr @_ZN12_GLOBAL__N_13MOVI3RnWImE2MnImEEEP6MemoryS6_R5StateT_T0_(ptr %1346, ptr %state, ptr %RBX, i64 %1345)
  store ptr %1347, ptr %MEMORY, align 8
  %1348 = load i64, ptr %NEXT_PC, align 8
  store i64 %1348, ptr %PC, align 8
  %1349 = add i64 %1348, 3
  store i64 %1349, ptr %NEXT_PC, align 8
  %1350 = load i64, ptr %RBX, align 8
  %1351 = load i64, ptr %RBX, align 8
  %1352 = load ptr, ptr %MEMORY, align 8
  %1353 = call ptr @_ZN12_GLOBAL__N_14TESTI2RnImLb1EES2_EEP6MemoryS4_R5StateT_T0_(ptr %1352, ptr %state, i64 %1350, i64 %1351)
  store ptr %1353, ptr %MEMORY, align 8
  %1354 = load i64, ptr %NEXT_PC, align 8
  store i64 %1354, ptr %PC, align 8
  %1355 = add i64 %1354, 2
  store i64 %1355, ptr %NEXT_PC, align 8
  %1356 = load i64, ptr %NEXT_PC, align 8
  %1357 = sub i64 %1356, 14
  %1358 = load i64, ptr %NEXT_PC, align 8
  %1359 = load ptr, ptr %MEMORY, align 8
  %1360 = call ptr @_ZN12_GLOBAL__N_13JNZEP6MemoryR5State3RnWIhE2InImES7_S4_ImE(ptr %1359, ptr %state, ptr %BRANCH_TAKEN, i64 %1357, i64 %1358, ptr %NEXT_PC)
  store ptr %1360, ptr %MEMORY, align 8
  br i1 true, label %bb_5395658371, label %bb_5395658385

bb_5395658385:                                    ; preds = %bb_5395658376, %bb_5395658324
  %1361 = load i64, ptr %NEXT_PC, align 8
  store i64 %1361, ptr %PC, align 8
  %1362 = add i64 %1361, 4
  store i64 %1362, ptr %NEXT_PC, align 8
  %1363 = load i64, ptr %RSI, align 8
  %1364 = add i64 %1363, 24
  %1365 = load ptr, ptr %MEMORY, align 8
  %1366 = call ptr @_ZN12_GLOBAL__N_13MOVI3RnWImE2MnImEEEP6MemoryS6_R5StateT_T0_(ptr %1365, ptr %state, ptr %RAX, i64 %1364)
  store ptr %1366, ptr %MEMORY, align 8
  %1367 = load i64, ptr %NEXT_PC, align 8
  store i64 %1367, ptr %PC, align 8
  %1368 = add i64 %1367, 5
  store i64 %1368, ptr %NEXT_PC, align 8
  %1369 = load i64, ptr %RSP, align 8
  %1370 = add i64 %1369, 48
  %1371 = load ptr, ptr %MEMORY, align 8
  %1372 = call ptr @_ZN12_GLOBAL__N_13MOVI3RnWImE2MnImEEEP6MemoryS6_R5StateT_T0_(ptr %1371, ptr %state, ptr %RBX, i64 %1370)
  store ptr %1372, ptr %MEMORY, align 8
  %1373 = load i64, ptr %NEXT_PC, align 8
  store i64 %1373, ptr %PC, align 8
  %1374 = add i64 %1373, 5
  store i64 %1374, ptr %NEXT_PC, align 8
  %1375 = load i64, ptr %RSP, align 8
  %1376 = add i64 %1375, 56
  %1377 = load ptr, ptr %MEMORY, align 8
  %1378 = call ptr @_ZN12_GLOBAL__N_13MOVI3RnWImE2MnImEEEP6MemoryS6_R5StateT_T0_(ptr %1377, ptr %state, ptr %RSI, i64 %1376)
  store ptr %1378, ptr %MEMORY, align 8
  %1379 = load i64, ptr %NEXT_PC, align 8
  store i64 %1379, ptr %PC, align 8
  %1380 = add i64 %1379, 4
  store i64 %1380, ptr %NEXT_PC, align 8
  %1381 = load i64, ptr %RSP, align 8
  %1382 = load ptr, ptr %MEMORY, align 8
  %1383 = call ptr @_ZN12_GLOBAL__N_13ADDI3RnWImE2RnImLb1EE2InImEEEP6MemoryS8_R5StateT_T0_T1_(ptr %1382, ptr %state, ptr %RSP, i64 %1381, i64 32)
  store ptr %1383, ptr %MEMORY, align 8
  %1384 = load i64, ptr %NEXT_PC, align 8
  store i64 %1384, ptr %PC, align 8
  %1385 = add i64 %1384, 1
  store i64 %1385, ptr %NEXT_PC, align 8
  %1386 = load ptr, ptr %MEMORY, align 8
  %1387 = call ptr @_ZN12_GLOBAL__N_13POPI3RnWImEEEP6MemoryS4_R5StateT_(ptr %1386, ptr %state, ptr %RDI)
  store ptr %1387, ptr %MEMORY, align 8
  %1388 = load i64, ptr %NEXT_PC, align 8
  store i64 %1388, ptr %PC, align 8
  %1389 = add i64 %1388, 1
  store i64 %1389, ptr %NEXT_PC, align 8
  %1390 = load ptr, ptr %MEMORY, align 8
  %1391 = call ptr @_ZN12_GLOBAL__N_13RETEP6MemoryR5State3RnWImE(ptr %1390, ptr %state, ptr %NEXT_PC)
  store ptr %1391, ptr %MEMORY, align 8
  ret ptr %memory

bb_5395658405:                                    ; preds = %bb_5395658371
  %1392 = load i64, ptr %NEXT_PC, align 8
  store i64 %1392, ptr %PC, align 8
  %1393 = add i64 %1392, 5
  store i64 %1393, ptr %NEXT_PC, align 8
  %1394 = load i64, ptr %RSP, align 8
  %1395 = add i64 %1394, 56
  %1396 = load ptr, ptr %MEMORY, align 8
  %1397 = call ptr @_ZN12_GLOBAL__N_13MOVI3RnWImE2MnImEEEP6MemoryS6_R5StateT_T0_(ptr %1396, ptr %state, ptr %RSI, i64 %1395)
  store ptr %1397, ptr %MEMORY, align 8
  %1398 = load i64, ptr %NEXT_PC, align 8
  store i64 %1398, ptr %PC, align 8
  %1399 = add i64 %1398, 3
  store i64 %1399, ptr %NEXT_PC, align 8
  %1400 = load i32, ptr %EDI, align 4
  %1401 = zext i32 %1400 to i64
  %1402 = load ptr, ptr %MEMORY, align 8
  %1403 = call ptr @_ZN12_GLOBAL__N_15MOVSXI3RnWImE2RnIjLb1EElEEP6MemoryS6_R5StateT_T0_(ptr %1402, ptr %state, ptr %RAX, i64 %1401)
  store ptr %1403, ptr %MEMORY, align 8
  %1404 = load i64, ptr %NEXT_PC, align 8
  store i64 %1404, ptr %PC, align 8
  %1405 = add i64 %1404, 4
  store i64 %1405, ptr %NEXT_PC, align 8
  %1406 = load i64, ptr %RAX, align 8
  %1407 = load i64, ptr %RAX, align 8
  %1408 = mul i64 %1407, 4
  %1409 = add i64 %1406, %1408
  %1410 = load ptr, ptr %MEMORY, align 8
  %1411 = call ptr @_ZN12_GLOBAL__N_13LEAI3RnWImE2MnIhEmEEP6MemoryS6_R5StateT_T0_(ptr %1410, ptr %state, ptr %RCX, i64 %1409)
  store ptr %1411, ptr %MEMORY, align 8
  %1412 = load i64, ptr %NEXT_PC, align 8
  store i64 %1412, ptr %PC, align 8
  %1413 = add i64 %1412, 4
  store i64 %1413, ptr %NEXT_PC, align 8
  %1414 = load i64, ptr %RBX, align 8
  %1415 = add i64 %1414, 24
  %1416 = load ptr, ptr %MEMORY, align 8
  %1417 = call ptr @_ZN12_GLOBAL__N_13MOVI3RnWImE2MnImEEEP6MemoryS6_R5StateT_T0_(ptr %1416, ptr %state, ptr %RAX, i64 %1415)
  store ptr %1417, ptr %MEMORY, align 8
  %1418 = load i64, ptr %NEXT_PC, align 8
  store i64 %1418, ptr %PC, align 8
  %1419 = add i64 %1418, 5
  store i64 %1419, ptr %NEXT_PC, align 8
  %1420 = load i64, ptr %RSP, align 8
  %1421 = add i64 %1420, 48
  %1422 = load ptr, ptr %MEMORY, align 8
  %1423 = call ptr @_ZN12_GLOBAL__N_13MOVI3RnWImE2MnImEEEP6MemoryS6_R5StateT_T0_(ptr %1422, ptr %state, ptr %RBX, i64 %1421)
  store ptr %1423, ptr %MEMORY, align 8
  %1424 = load i64, ptr %NEXT_PC, align 8
  store i64 %1424, ptr %PC, align 8
  %1425 = add i64 %1424, 4
  store i64 %1425, ptr %NEXT_PC, align 8
  %1426 = load i64, ptr %RAX, align 8
  %1427 = load i64, ptr %RCX, align 8
  %1428 = mul i64 %1427, 8
  %1429 = add i64 %1426, %1428
  %1430 = load ptr, ptr %MEMORY, align 8
  %1431 = call ptr @_ZN12_GLOBAL__N_13LEAI3RnWImE2MnIhEmEEP6MemoryS6_R5StateT_T0_(ptr %1430, ptr %state, ptr %RAX, i64 %1429)
  store ptr %1431, ptr %MEMORY, align 8
  %1432 = load i64, ptr %NEXT_PC, align 8
  store i64 %1432, ptr %PC, align 8
  %1433 = add i64 %1432, 4
  store i64 %1433, ptr %NEXT_PC, align 8
  %1434 = load i64, ptr %RSP, align 8
  %1435 = load ptr, ptr %MEMORY, align 8
  %1436 = call ptr @_ZN12_GLOBAL__N_13ADDI3RnWImE2RnImLb1EE2InImEEEP6MemoryS8_R5StateT_T0_T1_(ptr %1435, ptr %state, ptr %RSP, i64 %1434, i64 32)
  store ptr %1436, ptr %MEMORY, align 8
  %1437 = load i64, ptr %NEXT_PC, align 8
  store i64 %1437, ptr %PC, align 8
  %1438 = add i64 %1437, 1
  store i64 %1438, ptr %NEXT_PC, align 8
  %1439 = load ptr, ptr %MEMORY, align 8
  %1440 = call ptr @_ZN12_GLOBAL__N_13POPI3RnWImEEEP6MemoryS4_R5StateT_(ptr %1439, ptr %state, ptr %RDI)
  store ptr %1440, ptr %MEMORY, align 8
  %1441 = load i64, ptr %NEXT_PC, align 8
  store i64 %1441, ptr %PC, align 8
  %1442 = add i64 %1441, 1
  store i64 %1442, ptr %NEXT_PC, align 8
  %1443 = load ptr, ptr %MEMORY, align 8
  %1444 = call ptr @_ZN12_GLOBAL__N_13RETEP6MemoryR5State3RnWImE(ptr %1443, ptr %state, ptr %NEXT_PC)
  store ptr %1444, ptr %MEMORY, align 8
  ret ptr %memory

bb_5395658436:                                    ; No predecessors!
  %1445 = load i64, ptr %NEXT_PC, align 8
  store i64 %1445, ptr %PC, align 8
  %1446 = add i64 %1445, 1
  store i64 %1446, ptr %NEXT_PC, align 8
  %1447 = load ptr, ptr %MEMORY, align 8
  %1448 = call ptr @_ZN12_GLOBAL__N_16DoINT3EP6MemoryR5State3RnWImE(ptr %1447, ptr %state, ptr undef)
  store ptr %1448, ptr %MEMORY, align 8
  %1449 = load i64, ptr %NEXT_PC, align 8
  store i64 %1449, ptr %PC, align 8
  %1450 = add i64 %1449, 1
  store i64 %1450, ptr %NEXT_PC, align 8
  %1451 = load ptr, ptr %MEMORY, align 8
  %1452 = call ptr @_ZN12_GLOBAL__N_16DoINT3EP6MemoryR5State3RnWImE(ptr %1451, ptr %state, ptr undef)
  store ptr %1452, ptr %MEMORY, align 8
  %1453 = load i64, ptr %NEXT_PC, align 8
  store i64 %1453, ptr %PC, align 8
  %1454 = add i64 %1453, 1
  store i64 %1454, ptr %NEXT_PC, align 8
  %1455 = load ptr, ptr %MEMORY, align 8
  %1456 = call ptr @_ZN12_GLOBAL__N_16DoINT3EP6MemoryR5State3RnWImE(ptr %1455, ptr %state, ptr undef)
  store ptr %1456, ptr %MEMORY, align 8
  %1457 = load i64, ptr %NEXT_PC, align 8
  store i64 %1457, ptr %PC, align 8
  %1458 = add i64 %1457, 1
  store i64 %1458, ptr %NEXT_PC, align 8
  %1459 = load ptr, ptr %MEMORY, align 8
  %1460 = call ptr @_ZN12_GLOBAL__N_16DoINT3EP6MemoryR5State3RnWImE(ptr %1459, ptr %state, ptr undef)
  store ptr %1460, ptr %MEMORY, align 8
  %1461 = load i64, ptr %NEXT_PC, align 8
  store i64 %1461, ptr %PC, align 8
  %1462 = add i64 %1461, 1
  store i64 %1462, ptr %NEXT_PC, align 8
  %1463 = load ptr, ptr %MEMORY, align 8
  %1464 = call ptr @_ZN12_GLOBAL__N_16DoINT3EP6MemoryR5State3RnWImE(ptr %1463, ptr %state, ptr undef)
  store ptr %1464, ptr %MEMORY, align 8
  %1465 = load i64, ptr %NEXT_PC, align 8
  store i64 %1465, ptr %PC, align 8
  %1466 = add i64 %1465, 1
  store i64 %1466, ptr %NEXT_PC, align 8
  %1467 = load ptr, ptr %MEMORY, align 8
  %1468 = call ptr @_ZN12_GLOBAL__N_16DoINT3EP6MemoryR5State3RnWImE(ptr %1467, ptr %state, ptr undef)
  store ptr %1468, ptr %MEMORY, align 8
  %1469 = load i64, ptr %NEXT_PC, align 8
  store i64 %1469, ptr %PC, align 8
  %1470 = add i64 %1469, 1
  store i64 %1470, ptr %NEXT_PC, align 8
  %1471 = load ptr, ptr %MEMORY, align 8
  %1472 = call ptr @_ZN12_GLOBAL__N_16DoINT3EP6MemoryR5State3RnWImE(ptr %1471, ptr %state, ptr undef)
  store ptr %1472, ptr %MEMORY, align 8
  %1473 = load i64, ptr %NEXT_PC, align 8
  store i64 %1473, ptr %PC, align 8
  %1474 = add i64 %1473, 1
  store i64 %1474, ptr %NEXT_PC, align 8
  %1475 = load ptr, ptr %MEMORY, align 8
  %1476 = call ptr @_ZN12_GLOBAL__N_16DoINT3EP6MemoryR5State3RnWImE(ptr %1475, ptr %state, ptr undef)
  store ptr %1476, ptr %MEMORY, align 8
  %1477 = load i64, ptr %NEXT_PC, align 8
  store i64 %1477, ptr %PC, align 8
  %1478 = add i64 %1477, 1
  store i64 %1478, ptr %NEXT_PC, align 8
  %1479 = load ptr, ptr %MEMORY, align 8
  %1480 = call ptr @_ZN12_GLOBAL__N_16DoINT3EP6MemoryR5State3RnWImE(ptr %1479, ptr %state, ptr undef)
  store ptr %1480, ptr %MEMORY, align 8
  %1481 = load i64, ptr %NEXT_PC, align 8
  store i64 %1481, ptr %PC, align 8
  %1482 = add i64 %1481, 1
  store i64 %1482, ptr %NEXT_PC, align 8
  %1483 = load ptr, ptr %MEMORY, align 8
  %1484 = call ptr @_ZN12_GLOBAL__N_16DoINT3EP6MemoryR5State3RnWImE(ptr %1483, ptr %state, ptr undef)
  store ptr %1484, ptr %MEMORY, align 8
  %1485 = load i64, ptr %NEXT_PC, align 8
  store i64 %1485, ptr %PC, align 8
  %1486 = add i64 %1485, 1
  store i64 %1486, ptr %NEXT_PC, align 8
  %1487 = load ptr, ptr %MEMORY, align 8
  %1488 = call ptr @_ZN12_GLOBAL__N_16DoINT3EP6MemoryR5State3RnWImE(ptr %1487, ptr %state, ptr undef)
  store ptr %1488, ptr %MEMORY, align 8
  %1489 = load i64, ptr %NEXT_PC, align 8
  store i64 %1489, ptr %PC, align 8
  %1490 = add i64 %1489, 1
  store i64 %1490, ptr %NEXT_PC, align 8
  %1491 = load ptr, ptr %MEMORY, align 8
  %1492 = call ptr @_ZN12_GLOBAL__N_16DoINT3EP6MemoryR5State3RnWImE(ptr %1491, ptr %state, ptr undef)
  store ptr %1492, ptr %MEMORY, align 8
  %1493 = load i64, ptr %NEXT_PC, align 8
  store i64 %1493, ptr %PC, align 8
  %1494 = add i64 %1493, 5
  store i64 %1494, ptr %NEXT_PC, align 8
  %1495 = load i64, ptr %RSP, align 8
  %1496 = add i64 %1495, 8
  %1497 = load i64, ptr %RBX, align 8
  %1498 = load ptr, ptr %MEMORY, align 8
  %1499 = call ptr @_ZN12_GLOBAL__N_13MOVI3MnWImE2RnImLb1EEEEP6MemoryS6_R5StateT_T0_(ptr %1498, ptr %state, i64 %1496, i64 %1497)
  store ptr %1499, ptr %MEMORY, align 8
  %1500 = load i64, ptr %NEXT_PC, align 8
  store i64 %1500, ptr %PC, align 8
  %1501 = add i64 %1500, 5
  store i64 %1501, ptr %NEXT_PC, align 8
  %1502 = load i64, ptr %RSP, align 8
  %1503 = add i64 %1502, 16
  %1504 = load i64, ptr %RBP, align 8
  %1505 = load ptr, ptr %MEMORY, align 8
  %1506 = call ptr @_ZN12_GLOBAL__N_13MOVI3MnWImE2RnImLb1EEEEP6MemoryS6_R5StateT_T0_(ptr %1505, ptr %state, i64 %1503, i64 %1504)
  store ptr %1506, ptr %MEMORY, align 8
  %1507 = load i64, ptr %NEXT_PC, align 8
  store i64 %1507, ptr %PC, align 8
  %1508 = add i64 %1507, 5
  store i64 %1508, ptr %NEXT_PC, align 8
  %1509 = load i64, ptr %RSP, align 8
  %1510 = add i64 %1509, 24
  %1511 = load i64, ptr %RSI, align 8
  %1512 = load ptr, ptr %MEMORY, align 8
  %1513 = call ptr @_ZN12_GLOBAL__N_13MOVI3MnWImE2RnImLb1EEEEP6MemoryS6_R5StateT_T0_(ptr %1512, ptr %state, i64 %1510, i64 %1511)
  store ptr %1513, ptr %MEMORY, align 8
  %1514 = load i64, ptr %NEXT_PC, align 8
  store i64 %1514, ptr %PC, align 8
  %1515 = add i64 %1514, 1
  store i64 %1515, ptr %NEXT_PC, align 8
  %1516 = load i64, ptr %RDI, align 8
  %1517 = load ptr, ptr %MEMORY, align 8
  %1518 = call ptr @_ZN12_GLOBAL__N_14PUSHI2InImEEEP6MemoryS4_R5StateT_(ptr %1517, ptr %state, i64 %1516)
  store ptr %1518, ptr %MEMORY, align 8
  %1519 = load i64, ptr %NEXT_PC, align 8
  store i64 %1519, ptr %PC, align 8
  %1520 = add i64 %1519, 4
  store i64 %1520, ptr %NEXT_PC, align 8
  %1521 = load i64, ptr %RSP, align 8
  %1522 = load ptr, ptr %MEMORY, align 8
  %1523 = call ptr @_ZN12_GLOBAL__N_13SUBI3RnWImE2RnImLb1EE2InImEEEP6MemoryS8_R5StateT_T0_T1_(ptr %1522, ptr %state, ptr %RSP, i64 %1521, i64 32)
  store ptr %1523, ptr %MEMORY, align 8
  %1524 = load i64, ptr %NEXT_PC, align 8
  store i64 %1524, ptr %PC, align 8
  %1525 = add i64 %1524, 3
  store i64 %1525, ptr %NEXT_PC, align 8
  %1526 = load i64, ptr %RDX, align 8
  %1527 = load ptr, ptr %MEMORY, align 8
  %1528 = call ptr @_ZN12_GLOBAL__N_13MOVI3RnWImE2RnImLb1EEEEP6MemoryS6_R5StateT_T0_(ptr %1527, ptr %state, ptr %RBP, i64 %1526)
  store ptr %1528, ptr %MEMORY, align 8
  %1529 = load i64, ptr %NEXT_PC, align 8
  store i64 %1529, ptr %PC, align 8
  %1530 = add i64 %1529, 3
  store i64 %1530, ptr %NEXT_PC, align 8
  %1531 = load i64, ptr %RCX, align 8
  %1532 = load ptr, ptr %MEMORY, align 8
  %1533 = call ptr @_ZN12_GLOBAL__N_13MOVI3RnWImE2RnImLb1EEEEP6MemoryS6_R5StateT_T0_(ptr %1532, ptr %state, ptr %RDI, i64 %1531)
  store ptr %1533, ptr %MEMORY, align 8
  %1534 = load i64, ptr %NEXT_PC, align 8
  store i64 %1534, ptr %PC, align 8
  %1535 = add i64 %1534, 2
  store i64 %1535, ptr %NEXT_PC, align 8
  %1536 = load i64, ptr %RBX, align 8
  %1537 = load i32, ptr %EBX, align 4
  %1538 = zext i32 %1537 to i64
  %1539 = load ptr, ptr %MEMORY, align 8
  %1540 = call ptr @_ZN12_GLOBAL__N_13XORI3RnWImE2RnIjLb1EES4_EEP6MemoryS6_R5StateT_T0_T1_(ptr %1539, ptr %state, ptr %RBX, i64 %1536, i64 %1538)
  store ptr %1540, ptr %MEMORY, align 8
  %1541 = load i64, ptr %NEXT_PC, align 8
  store i64 %1541, ptr %PC, align 8
  %1542 = add i64 %1541, 5
  store i64 %1542, ptr %NEXT_PC, align 8
  %1543 = load i64, ptr %NEXT_PC, align 8
  %1544 = add i64 %1543, 95
  %1545 = load i64, ptr %NEXT_PC, align 8
  %1546 = load ptr, ptr %MEMORY, align 8
  %1547 = call ptr @_ZN12_GLOBAL__N_14CALLI2InImEEEP6MemoryS4_R5StateT_3RnWImES2_S9_(ptr %1546, ptr %state, i64 %1544, ptr %NEXT_PC, i64 %1545, ptr %RETURN_PC)
  store ptr %1547, ptr %MEMORY, align 8
  %1548 = load i64, ptr %NEXT_PC, align 8
  store i64 %1548, ptr %PC, align 8
  %1549 = add i64 %1548, 2
  store i64 %1549, ptr %NEXT_PC, align 8
  %1550 = load i32, ptr %EAX, align 4
  %1551 = zext i32 %1550 to i64
  %1552 = load i32, ptr %EAX, align 4
  %1553 = zext i32 %1552 to i64
  %1554 = load ptr, ptr %MEMORY, align 8
  %1555 = call ptr @_ZN12_GLOBAL__N_14TESTI2RnIjLb1EES2_EEP6MemoryS4_R5StateT_T0_(ptr %1554, ptr %state, i64 %1551, i64 %1553)
  store ptr %1555, ptr %MEMORY, align 8
  %1556 = load i64, ptr %NEXT_PC, align 8
  store i64 %1556, ptr %PC, align 8
  %1557 = add i64 %1556, 2
  store i64 %1557, ptr %NEXT_PC, align 8
  %1558 = load i64, ptr %NEXT_PC, align 8
  %1559 = add i64 %1558, 42
  %1560 = load i64, ptr %NEXT_PC, align 8
  %1561 = load ptr, ptr %MEMORY, align 8
  %1562 = call ptr @_ZN12_GLOBAL__N_13JLEEP6MemoryR5State3RnWIhE2InImES7_S4_ImE(ptr %1561, ptr %state, ptr %BRANCH_TAKEN, i64 %1559, i64 %1560, ptr %NEXT_PC)
  store ptr %1562, ptr %MEMORY, align 8
  br i1 true, label %bb_5395658527, label %bb_5395658485

bb_5395658485:                                    ; preds = %bb_5395658513, %bb_5395658436
  %1563 = load i64, ptr %NEXT_PC, align 8
  store i64 %1563, ptr %PC, align 8
  %1564 = add i64 %1563, 2
  store i64 %1564, ptr %NEXT_PC, align 8
  %1565 = load i32, ptr %EBX, align 4
  %1566 = zext i32 %1565 to i64
  %1567 = load ptr, ptr %MEMORY, align 8
  %1568 = call ptr @_ZN12_GLOBAL__N_13MOVI3RnWImE2RnIjLb1EEEEP6MemoryS6_R5StateT_T0_(ptr %1567, ptr %state, ptr %RDX, i64 %1566)
  store ptr %1568, ptr %MEMORY, align 8
  %1569 = load i64, ptr %NEXT_PC, align 8
  store i64 %1569, ptr %PC, align 8
  %1570 = add i64 %1569, 3
  store i64 %1570, ptr %NEXT_PC, align 8
  %1571 = load i64, ptr %RDI, align 8
  %1572 = load ptr, ptr %MEMORY, align 8
  %1573 = call ptr @_ZN12_GLOBAL__N_13MOVI3RnWImE2RnImLb1EEEEP6MemoryS6_R5StateT_T0_(ptr %1572, ptr %state, ptr %RCX, i64 %1571)
  store ptr %1573, ptr %MEMORY, align 8
  %1574 = load i64, ptr %NEXT_PC, align 8
  store i64 %1574, ptr %PC, align 8
  %1575 = add i64 %1574, 5
  store i64 %1575, ptr %NEXT_PC, align 8
  %1576 = load i64, ptr %NEXT_PC, align 8
  %1577 = sub i64 %1576, 159
  %1578 = load i64, ptr %NEXT_PC, align 8
  %1579 = load ptr, ptr %MEMORY, align 8
  %1580 = call ptr @_ZN12_GLOBAL__N_14CALLI2InImEEEP6MemoryS4_R5StateT_3RnWImES2_S9_(ptr %1579, ptr %state, i64 %1577, ptr %NEXT_PC, i64 %1578, ptr %RETURN_PC)
  store ptr %1580, ptr %MEMORY, align 8
  %1581 = load i64, ptr %NEXT_PC, align 8
  store i64 %1581, ptr %PC, align 8
  %1582 = add i64 %1581, 3
  store i64 %1582, ptr %NEXT_PC, align 8
  %1583 = load i64, ptr %RBP, align 8
  %1584 = load ptr, ptr %MEMORY, align 8
  %1585 = call ptr @_ZN12_GLOBAL__N_13MOVI3RnWImE2RnImLb1EEEEP6MemoryS6_R5StateT_T0_(ptr %1584, ptr %state, ptr %RDX, i64 %1583)
  store ptr %1585, ptr %MEMORY, align 8
  %1586 = load i64, ptr %NEXT_PC, align 8
  store i64 %1586, ptr %PC, align 8
  %1587 = add i64 %1586, 3
  store i64 %1587, ptr %NEXT_PC, align 8
  %1588 = load i64, ptr %RAX, align 8
  %1589 = load ptr, ptr %MEMORY, align 8
  %1590 = call ptr @_ZN12_GLOBAL__N_13MOVI3RnWImE2RnImLb1EEEEP6MemoryS6_R5StateT_T0_(ptr %1589, ptr %state, ptr %RSI, i64 %1588)
  store ptr %1590, ptr %MEMORY, align 8
  %1591 = load i64, ptr %NEXT_PC, align 8
  store i64 %1591, ptr %PC, align 8
  %1592 = add i64 %1591, 3
  store i64 %1592, ptr %NEXT_PC, align 8
  %1593 = load i64, ptr %RAX, align 8
  %1594 = load ptr, ptr %MEMORY, align 8
  %1595 = call ptr @_ZN12_GLOBAL__N_13MOVI3RnWImE2MnImEEEP6MemoryS6_R5StateT_T0_(ptr %1594, ptr %state, ptr %RCX, i64 %1593)
  store ptr %1595, ptr %MEMORY, align 8
  %1596 = load i64, ptr %NEXT_PC, align 8
  store i64 %1596, ptr %PC, align 8
  %1597 = add i64 %1596, 5
  store i64 %1597, ptr %NEXT_PC, align 8
  %1598 = load i64, ptr %NEXT_PC, align 8
  %1599 = add i64 %1598, 45811
  %1600 = load i64, ptr %NEXT_PC, align 8
  %1601 = load ptr, ptr %MEMORY, align 8
  %1602 = call ptr @_ZN12_GLOBAL__N_14CALLI2InImEEEP6MemoryS4_R5StateT_3RnWImES2_S9_(ptr %1601, ptr %state, i64 %1599, ptr %NEXT_PC, i64 %1600, ptr %RETURN_PC)
  store ptr %1602, ptr %MEMORY, align 8
  %1603 = load i64, ptr %NEXT_PC, align 8
  store i64 %1603, ptr %PC, align 8
  %1604 = add i64 %1603, 2
  store i64 %1604, ptr %NEXT_PC, align 8
  %1605 = load i32, ptr %EAX, align 4
  %1606 = zext i32 %1605 to i64
  %1607 = load i32, ptr %EAX, align 4
  %1608 = zext i32 %1607 to i64
  %1609 = load ptr, ptr %MEMORY, align 8
  %1610 = call ptr @_ZN12_GLOBAL__N_14TESTI2RnIjLb1EES2_EEP6MemoryS4_R5StateT_T0_(ptr %1609, ptr %state, i64 %1606, i64 %1608)
  store ptr %1610, ptr %MEMORY, align 8
  %1611 = load i64, ptr %NEXT_PC, align 8
  store i64 %1611, ptr %PC, align 8
  %1612 = add i64 %1611, 2
  store i64 %1612, ptr %NEXT_PC, align 8
  %1613 = load i64, ptr %NEXT_PC, align 8
  %1614 = add i64 %1613, 37
  %1615 = load i64, ptr %NEXT_PC, align 8
  %1616 = load ptr, ptr %MEMORY, align 8
  %1617 = call ptr @_ZN12_GLOBAL__N_12JZEP6MemoryR5State3RnWIhE2InImES7_S4_ImE(ptr %1616, ptr %state, ptr %BRANCH_TAKEN, i64 %1614, i64 %1615, ptr %NEXT_PC)
  store ptr %1617, ptr %MEMORY, align 8
  br i1 true, label %bb_5395658550, label %bb_5395658513

bb_5395658513:                                    ; preds = %bb_5395658485
  %1618 = load i64, ptr %NEXT_PC, align 8
  store i64 %1618, ptr %PC, align 8
  %1619 = add i64 %1618, 3
  store i64 %1619, ptr %NEXT_PC, align 8
  %1620 = load i64, ptr %RDI, align 8
  %1621 = load ptr, ptr %MEMORY, align 8
  %1622 = call ptr @_ZN12_GLOBAL__N_13MOVI3RnWImE2RnImLb1EEEEP6MemoryS6_R5StateT_T0_(ptr %1621, ptr %state, ptr %RCX, i64 %1620)
  store ptr %1622, ptr %MEMORY, align 8
  %1623 = load i64, ptr %NEXT_PC, align 8
  store i64 %1623, ptr %PC, align 8
  %1624 = add i64 %1623, 2
  store i64 %1624, ptr %NEXT_PC, align 8
  %1625 = load i64, ptr %RBX, align 8
  %1626 = load ptr, ptr %MEMORY, align 8
  %1627 = call ptr @_ZN12_GLOBAL__N_13INCI3RnWImE2RnIjLb1EEEEP6MemoryS6_R5StateT_T0_(ptr %1626, ptr %state, ptr %RBX, i64 %1625)
  store ptr %1627, ptr %MEMORY, align 8
  %1628 = load i64, ptr %NEXT_PC, align 8
  store i64 %1628, ptr %PC, align 8
  %1629 = add i64 %1628, 5
  store i64 %1629, ptr %NEXT_PC, align 8
  %1630 = load i64, ptr %NEXT_PC, align 8
  %1631 = add i64 %1630, 53
  %1632 = load i64, ptr %NEXT_PC, align 8
  %1633 = load ptr, ptr %MEMORY, align 8
  %1634 = call ptr @_ZN12_GLOBAL__N_14CALLI2InImEEEP6MemoryS4_R5StateT_3RnWImES2_S9_(ptr %1633, ptr %state, i64 %1631, ptr %NEXT_PC, i64 %1632, ptr %RETURN_PC)
  store ptr %1634, ptr %MEMORY, align 8
  %1635 = load i64, ptr %NEXT_PC, align 8
  store i64 %1635, ptr %PC, align 8
  %1636 = add i64 %1635, 2
  store i64 %1636, ptr %NEXT_PC, align 8
  %1637 = load i32, ptr %EBX, align 4
  %1638 = zext i32 %1637 to i64
  %1639 = load i32, ptr %EAX, align 4
  %1640 = zext i32 %1639 to i64
  %1641 = load ptr, ptr %MEMORY, align 8
  %1642 = call ptr @_ZN12_GLOBAL__N_13CMPI2RnIjLb1EES2_EEP6MemoryS4_R5StateT_T0_(ptr %1641, ptr %state, i64 %1638, i64 %1640)
  store ptr %1642, ptr %MEMORY, align 8
  %1643 = load i64, ptr %NEXT_PC, align 8
  store i64 %1643, ptr %PC, align 8
  %1644 = add i64 %1643, 2
  store i64 %1644, ptr %NEXT_PC, align 8
  %1645 = load i64, ptr %NEXT_PC, align 8
  %1646 = sub i64 %1645, 42
  %1647 = load i64, ptr %NEXT_PC, align 8
  %1648 = load ptr, ptr %MEMORY, align 8
  %1649 = call ptr @_ZN12_GLOBAL__N_12JLEP6MemoryR5State3RnWIhE2InImES7_S4_ImE(ptr %1648, ptr %state, ptr %BRANCH_TAKEN, i64 %1646, i64 %1647, ptr %NEXT_PC)
  store ptr %1649, ptr %MEMORY, align 8
  br i1 true, label %bb_5395658485, label %bb_5395658527

bb_5395658527:                                    ; preds = %bb_5395658513, %bb_5395658436
  %1650 = load i64, ptr %NEXT_PC, align 8
  store i64 %1650, ptr %PC, align 8
  %1651 = add i64 %1650, 2
  store i64 %1651, ptr %NEXT_PC, align 8
  %1652 = load i64, ptr %RAX, align 8
  %1653 = load i32, ptr %EAX, align 4
  %1654 = zext i32 %1653 to i64
  %1655 = load ptr, ptr %MEMORY, align 8
  %1656 = call ptr @_ZN12_GLOBAL__N_13XORI3RnWImE2RnIjLb1EES4_EEP6MemoryS6_R5StateT_T0_T1_(ptr %1655, ptr %state, ptr %RAX, i64 %1652, i64 %1654)
  store ptr %1656, ptr %MEMORY, align 8
  br label %bb_5395658529

bb_5395658529:                                    ; preds = %bb_5395658550, %bb_5395658527
  %1657 = load i64, ptr %NEXT_PC, align 8
  store i64 %1657, ptr %PC, align 8
  %1658 = add i64 %1657, 5
  store i64 %1658, ptr %NEXT_PC, align 8
  %1659 = load i64, ptr %RSP, align 8
  %1660 = add i64 %1659, 48
  %1661 = load ptr, ptr %MEMORY, align 8
  %1662 = call ptr @_ZN12_GLOBAL__N_13MOVI3RnWImE2MnImEEEP6MemoryS6_R5StateT_T0_(ptr %1661, ptr %state, ptr %RBX, i64 %1660)
  store ptr %1662, ptr %MEMORY, align 8
  %1663 = load i64, ptr %NEXT_PC, align 8
  store i64 %1663, ptr %PC, align 8
  %1664 = add i64 %1663, 5
  store i64 %1664, ptr %NEXT_PC, align 8
  %1665 = load i64, ptr %RSP, align 8
  %1666 = add i64 %1665, 56
  %1667 = load ptr, ptr %MEMORY, align 8
  %1668 = call ptr @_ZN12_GLOBAL__N_13MOVI3RnWImE2MnImEEEP6MemoryS6_R5StateT_T0_(ptr %1667, ptr %state, ptr %RBP, i64 %1666)
  store ptr %1668, ptr %MEMORY, align 8
  %1669 = load i64, ptr %NEXT_PC, align 8
  store i64 %1669, ptr %PC, align 8
  %1670 = add i64 %1669, 5
  store i64 %1670, ptr %NEXT_PC, align 8
  %1671 = load i64, ptr %RSP, align 8
  %1672 = add i64 %1671, 64
  %1673 = load ptr, ptr %MEMORY, align 8
  %1674 = call ptr @_ZN12_GLOBAL__N_13MOVI3RnWImE2MnImEEEP6MemoryS6_R5StateT_T0_(ptr %1673, ptr %state, ptr %RSI, i64 %1672)
  store ptr %1674, ptr %MEMORY, align 8
  %1675 = load i64, ptr %NEXT_PC, align 8
  store i64 %1675, ptr %PC, align 8
  %1676 = add i64 %1675, 4
  store i64 %1676, ptr %NEXT_PC, align 8
  %1677 = load i64, ptr %RSP, align 8
  %1678 = load ptr, ptr %MEMORY, align 8
  %1679 = call ptr @_ZN12_GLOBAL__N_13ADDI3RnWImE2RnImLb1EE2InImEEEP6MemoryS8_R5StateT_T0_T1_(ptr %1678, ptr %state, ptr %RSP, i64 %1677, i64 32)
  store ptr %1679, ptr %MEMORY, align 8
  %1680 = load i64, ptr %NEXT_PC, align 8
  store i64 %1680, ptr %PC, align 8
  %1681 = add i64 %1680, 1
  store i64 %1681, ptr %NEXT_PC, align 8
  %1682 = load ptr, ptr %MEMORY, align 8
  %1683 = call ptr @_ZN12_GLOBAL__N_13POPI3RnWImEEEP6MemoryS4_R5StateT_(ptr %1682, ptr %state, ptr %RDI)
  store ptr %1683, ptr %MEMORY, align 8
  %1684 = load i64, ptr %NEXT_PC, align 8
  store i64 %1684, ptr %PC, align 8
  %1685 = add i64 %1684, 1
  store i64 %1685, ptr %NEXT_PC, align 8
  %1686 = load ptr, ptr %MEMORY, align 8
  %1687 = call ptr @_ZN12_GLOBAL__N_13RETEP6MemoryR5State3RnWImE(ptr %1686, ptr %state, ptr %NEXT_PC)
  store ptr %1687, ptr %MEMORY, align 8
  ret ptr %memory

bb_5395658550:                                    ; preds = %bb_5395658485
  %1688 = load i64, ptr %NEXT_PC, align 8
  store i64 %1688, ptr %PC, align 8
  %1689 = add i64 %1688, 3
  store i64 %1689, ptr %NEXT_PC, align 8
  %1690 = load i64, ptr %RSI, align 8
  %1691 = load ptr, ptr %MEMORY, align 8
  %1692 = call ptr @_ZN12_GLOBAL__N_13MOVI3RnWImE2RnImLb1EEEEP6MemoryS6_R5StateT_T0_(ptr %1691, ptr %state, ptr %RAX, i64 %1690)
  store ptr %1692, ptr %MEMORY, align 8
  %1693 = load i64, ptr %NEXT_PC, align 8
  store i64 %1693, ptr %PC, align 8
  %1694 = add i64 %1693, 2
  store i64 %1694, ptr %NEXT_PC, align 8
  %1695 = load i64, ptr %NEXT_PC, align 8
  %1696 = sub i64 %1695, 26
  %1697 = load ptr, ptr %MEMORY, align 8
  %1698 = call ptr @_ZN12_GLOBAL__N_13JMPI2InImEEEP6MemoryS4_R5StateT_3RnWImE(ptr %1697, ptr %state, i64 %1696, ptr %NEXT_PC)
  store ptr %1698, ptr %MEMORY, align 8
  br label %bb_5395658529
  %1699 = load i64, ptr %NEXT_PC, align 8
  store i64 %1699, ptr %PC, align 8
  %1700 = add i64 %1699, 1
  store i64 %1700, ptr %NEXT_PC, align 8
  %1701 = load ptr, ptr %MEMORY, align 8
  %1702 = call ptr @_ZN12_GLOBAL__N_16DoINT3EP6MemoryR5State3RnWImE(ptr %1701, ptr %state, ptr undef)
  store ptr %1702, ptr %MEMORY, align 8
  %1703 = load i64, ptr %NEXT_PC, align 8
  store i64 %1703, ptr %PC, align 8
  %1704 = add i64 %1703, 1
  store i64 %1704, ptr %NEXT_PC, align 8
  %1705 = load ptr, ptr %MEMORY, align 8
  %1706 = call ptr @_ZN12_GLOBAL__N_16DoINT3EP6MemoryR5State3RnWImE(ptr %1705, ptr %state, ptr undef)
  store ptr %1706, ptr %MEMORY, align 8
  %1707 = load i64, ptr %NEXT_PC, align 8
  store i64 %1707, ptr %PC, align 8
  %1708 = add i64 %1707, 1
  store i64 %1708, ptr %NEXT_PC, align 8
  %1709 = load ptr, ptr %MEMORY, align 8
  %1710 = call ptr @_ZN12_GLOBAL__N_16DoINT3EP6MemoryR5State3RnWImE(ptr %1709, ptr %state, ptr undef)
  store ptr %1710, ptr %MEMORY, align 8
  %1711 = load i64, ptr %NEXT_PC, align 8
  store i64 %1711, ptr %PC, align 8
  %1712 = add i64 %1711, 1
  store i64 %1712, ptr %NEXT_PC, align 8
  %1713 = load ptr, ptr %MEMORY, align 8
  %1714 = call ptr @_ZN12_GLOBAL__N_16DoINT3EP6MemoryR5State3RnWImE(ptr %1713, ptr %state, ptr undef)
  store ptr %1714, ptr %MEMORY, align 8
  %1715 = load i64, ptr %NEXT_PC, align 8
  store i64 %1715, ptr %PC, align 8
  %1716 = add i64 %1715, 1
  store i64 %1716, ptr %NEXT_PC, align 8
  %1717 = load ptr, ptr %MEMORY, align 8
  %1718 = call ptr @_ZN12_GLOBAL__N_16DoINT3EP6MemoryR5State3RnWImE(ptr %1717, ptr %state, ptr undef)
  store ptr %1718, ptr %MEMORY, align 8
  %1719 = load i64, ptr %NEXT_PC, align 8
  store i64 %1719, ptr %PC, align 8
  %1720 = add i64 %1719, 1
  store i64 %1720, ptr %NEXT_PC, align 8
  %1721 = load ptr, ptr %MEMORY, align 8
  %1722 = call ptr @_ZN12_GLOBAL__N_16DoINT3EP6MemoryR5State3RnWImE(ptr %1721, ptr %state, ptr undef)
  store ptr %1722, ptr %MEMORY, align 8
  %1723 = load i64, ptr %NEXT_PC, align 8
  store i64 %1723, ptr %PC, align 8
  %1724 = add i64 %1723, 1
  store i64 %1724, ptr %NEXT_PC, align 8
  %1725 = load ptr, ptr %MEMORY, align 8
  %1726 = call ptr @_ZN12_GLOBAL__N_16DoINT3EP6MemoryR5State3RnWImE(ptr %1725, ptr %state, ptr undef)
  store ptr %1726, ptr %MEMORY, align 8
  %1727 = load i64, ptr %NEXT_PC, align 8
  store i64 %1727, ptr %PC, align 8
  %1728 = add i64 %1727, 1
  store i64 %1728, ptr %NEXT_PC, align 8
  %1729 = load ptr, ptr %MEMORY, align 8
  %1730 = call ptr @_ZN12_GLOBAL__N_16DoINT3EP6MemoryR5State3RnWImE(ptr %1729, ptr %state, ptr undef)
  store ptr %1730, ptr %MEMORY, align 8
  %1731 = load i64, ptr %NEXT_PC, align 8
  store i64 %1731, ptr %PC, align 8
  %1732 = add i64 %1731, 1
  store i64 %1732, ptr %NEXT_PC, align 8
  %1733 = load ptr, ptr %MEMORY, align 8
  %1734 = call ptr @_ZN12_GLOBAL__N_16DoINT3EP6MemoryR5State3RnWImE(ptr %1733, ptr %state, ptr undef)
  store ptr %1734, ptr %MEMORY, align 8
  %1735 = load i64, ptr %NEXT_PC, align 8
  store i64 %1735, ptr %PC, align 8
  %1736 = add i64 %1735, 1
  store i64 %1736, ptr %NEXT_PC, align 8
  %1737 = load ptr, ptr %MEMORY, align 8
  %1738 = call ptr @_ZN12_GLOBAL__N_16DoINT3EP6MemoryR5State3RnWImE(ptr %1737, ptr %state, ptr undef)
  store ptr %1738, ptr %MEMORY, align 8
  %1739 = load i64, ptr %NEXT_PC, align 8
  store i64 %1739, ptr %PC, align 8
  %1740 = add i64 %1739, 1
  store i64 %1740, ptr %NEXT_PC, align 8
  %1741 = load ptr, ptr %MEMORY, align 8
  %1742 = call ptr @_ZN12_GLOBAL__N_16DoINT3EP6MemoryR5State3RnWImE(ptr %1741, ptr %state, ptr undef)
  store ptr %1742, ptr %MEMORY, align 8
  %1743 = load i64, ptr %NEXT_PC, align 8
  store i64 %1743, ptr %PC, align 8
  %1744 = add i64 %1743, 1
  store i64 %1744, ptr %NEXT_PC, align 8
  %1745 = load ptr, ptr %MEMORY, align 8
  %1746 = call ptr @_ZN12_GLOBAL__N_16DoINT3EP6MemoryR5State3RnWImE(ptr %1745, ptr %state, ptr undef)
  store ptr %1746, ptr %MEMORY, align 8
  %1747 = load i64, ptr %NEXT_PC, align 8
  store i64 %1747, ptr %PC, align 8
  %1748 = add i64 %1747, 1
  store i64 %1748, ptr %NEXT_PC, align 8
  %1749 = load ptr, ptr %MEMORY, align 8
  %1750 = call ptr @_ZN12_GLOBAL__N_16DoINT3EP6MemoryR5State3RnWImE(ptr %1749, ptr %state, ptr undef)
  store ptr %1750, ptr %MEMORY, align 8
  %1751 = load i64, ptr %NEXT_PC, align 8
  store i64 %1751, ptr %PC, align 8
  %1752 = add i64 %1751, 1
  store i64 %1752, ptr %NEXT_PC, align 8
  %1753 = load ptr, ptr %MEMORY, align 8
  %1754 = call ptr @_ZN12_GLOBAL__N_16DoINT3EP6MemoryR5State3RnWImE(ptr %1753, ptr %state, ptr undef)
  store ptr %1754, ptr %MEMORY, align 8
  %1755 = load i64, ptr %NEXT_PC, align 8
  store i64 %1755, ptr %PC, align 8
  %1756 = add i64 %1755, 1
  store i64 %1756, ptr %NEXT_PC, align 8
  %1757 = load ptr, ptr %MEMORY, align 8
  %1758 = call ptr @_ZN12_GLOBAL__N_16DoINT3EP6MemoryR5State3RnWImE(ptr %1757, ptr %state, ptr undef)
  store ptr %1758, ptr %MEMORY, align 8
  %1759 = load i64, ptr %NEXT_PC, align 8
  store i64 %1759, ptr %PC, align 8
  %1760 = add i64 %1759, 1
  store i64 %1760, ptr %NEXT_PC, align 8
  %1761 = load ptr, ptr %MEMORY, align 8
  %1762 = call ptr @_ZN12_GLOBAL__N_16DoINT3EP6MemoryR5State3RnWImE(ptr %1761, ptr %state, ptr undef)
  store ptr %1762, ptr %MEMORY, align 8
  %1763 = load i64, ptr %NEXT_PC, align 8
  store i64 %1763, ptr %PC, align 8
  %1764 = add i64 %1763, 1
  store i64 %1764, ptr %NEXT_PC, align 8
  %1765 = load ptr, ptr %MEMORY, align 8
  %1766 = call ptr @_ZN12_GLOBAL__N_16DoINT3EP6MemoryR5State3RnWImE(ptr %1765, ptr %state, ptr undef)
  store ptr %1766, ptr %MEMORY, align 8
  %1767 = load i64, ptr %NEXT_PC, align 8
  store i64 %1767, ptr %PC, align 8
  %1768 = add i64 %1767, 1
  store i64 %1768, ptr %NEXT_PC, align 8
  %1769 = load ptr, ptr %MEMORY, align 8
  %1770 = call ptr @_ZN12_GLOBAL__N_16DoINT3EP6MemoryR5State3RnWImE(ptr %1769, ptr %state, ptr undef)
  store ptr %1770, ptr %MEMORY, align 8
  %1771 = load i64, ptr %NEXT_PC, align 8
  store i64 %1771, ptr %PC, align 8
  %1772 = add i64 %1771, 1
  store i64 %1772, ptr %NEXT_PC, align 8
  %1773 = load ptr, ptr %MEMORY, align 8
  %1774 = call ptr @_ZN12_GLOBAL__N_16DoINT3EP6MemoryR5State3RnWImE(ptr %1773, ptr %state, ptr undef)
  store ptr %1774, ptr %MEMORY, align 8
  %1775 = load i64, ptr %NEXT_PC, align 8
  store i64 %1775, ptr %PC, align 8
  %1776 = add i64 %1775, 1
  store i64 %1776, ptr %NEXT_PC, align 8
  %1777 = load ptr, ptr %MEMORY, align 8
  %1778 = call ptr @_ZN12_GLOBAL__N_16DoINT3EP6MemoryR5State3RnWImE(ptr %1777, ptr %state, ptr undef)
  store ptr %1778, ptr %MEMORY, align 8
  %1779 = load i64, ptr %NEXT_PC, align 8
  store i64 %1779, ptr %PC, align 8
  %1780 = add i64 %1779, 1
  store i64 %1780, ptr %NEXT_PC, align 8
  %1781 = load ptr, ptr %MEMORY, align 8
  %1782 = call ptr @_ZN12_GLOBAL__N_16DoINT3EP6MemoryR5State3RnWImE(ptr %1781, ptr %state, ptr undef)
  store ptr %1782, ptr %MEMORY, align 8
  %1783 = load i64, ptr %NEXT_PC, align 8
  store i64 %1783, ptr %PC, align 8
  %1784 = add i64 %1783, 4
  store i64 %1784, ptr %NEXT_PC, align 8
  %1785 = load i64, ptr %RCX, align 8
  %1786 = add i64 %1785, 8
  %1787 = load ptr, ptr %MEMORY, align 8
  %1788 = call ptr @_ZN12_GLOBAL__N_13MOVI3RnWImE2MnImEEEP6MemoryS6_R5StateT_T0_(ptr %1787, ptr %state, ptr %RDX, i64 %1786)
  store ptr %1788, ptr %MEMORY, align 8
  %1789 = load i64, ptr %NEXT_PC, align 8
  store i64 %1789, ptr %PC, align 8
  %1790 = add i64 %1789, 3
  store i64 %1790, ptr %NEXT_PC, align 8
  %1791 = load i64, ptr %RCX, align 8
  %1792 = add i64 %1791, 32
  %1793 = load ptr, ptr %MEMORY, align 8
  %1794 = call ptr @_ZN12_GLOBAL__N_13MOVI3RnWImE2MnIjEEEP6MemoryS6_R5StateT_T0_(ptr %1793, ptr %state, ptr %RAX, i64 %1792)
  store ptr %1794, ptr %MEMORY, align 8
  %1795 = load i64, ptr %NEXT_PC, align 8
  store i64 %1795, ptr %PC, align 8
  %1796 = add i64 %1795, 3
  store i64 %1796, ptr %NEXT_PC, align 8
  %1797 = load i64, ptr %RDX, align 8
  %1798 = load i64, ptr %RDX, align 8
  %1799 = load ptr, ptr %MEMORY, align 8
  %1800 = call ptr @_ZN12_GLOBAL__N_14TESTI2RnImLb1EES2_EEP6MemoryS4_R5StateT_T0_(ptr %1799, ptr %state, i64 %1797, i64 %1798)
  store ptr %1800, ptr %MEMORY, align 8
  %1801 = load i64, ptr %NEXT_PC, align 8
  store i64 %1801, ptr %PC, align 8
  %1802 = add i64 %1801, 2
  store i64 %1802, ptr %NEXT_PC, align 8
  %1803 = load i64, ptr %NEXT_PC, align 8
  %1804 = add i64 %1803, 16
  %1805 = load i64, ptr %NEXT_PC, align 8
  %1806 = load ptr, ptr %MEMORY, align 8
  %1807 = call ptr @_ZN12_GLOBAL__N_12JZEP6MemoryR5State3RnWIhE2InImES7_S4_ImE(ptr %1806, ptr %state, ptr %BRANCH_TAKEN, i64 %1804, i64 %1805, ptr %NEXT_PC)
  store ptr %1807, ptr %MEMORY, align 8
  br i1 true, label %bb_5395658604, label %bb_5395658588

bb_5395658588:                                    ; preds = %bb_5395658550
  %1808 = load i64, ptr %NEXT_PC, align 8
  store i64 %1808, ptr %PC, align 8
  %1809 = add i64 %1808, 4
  store i64 %1809, ptr %NEXT_PC, align 8
  %1810 = load i64, ptr %RAX, align 8
  %1811 = load ptr, ptr %MEMORY, align 8
  %1812 = call ptr @_ZN12_GLOBAL__N_18NOP_IMPLIJ2MnIjEEEEP6MemoryS4_R5StateDpT_(ptr %1811, ptr %state, i64 %1810)
  store ptr %1812, ptr %MEMORY, align 8
  br label %bb_5395658592

bb_5395658592:                                    ; preds = %bb_5395658592, %bb_5395658588
  %1813 = load i64, ptr %NEXT_PC, align 8
  store i64 %1813, ptr %PC, align 8
  %1814 = add i64 %1813, 3
  store i64 %1814, ptr %NEXT_PC, align 8
  %1815 = load i64, ptr %RAX, align 8
  %1816 = load i64, ptr %RDX, align 8
  %1817 = add i64 %1816, 32
  %1818 = load ptr, ptr %MEMORY, align 8
  %1819 = call ptr @_ZN12_GLOBAL__N_13ADDI3RnWImE2RnIjLb1EE2MnIjEEEP6MemoryS8_R5StateT_T0_T1_(ptr %1818, ptr %state, ptr %RAX, i64 %1815, i64 %1817)
  store ptr %1819, ptr %MEMORY, align 8
  %1820 = load i64, ptr %NEXT_PC, align 8
  store i64 %1820, ptr %PC, align 8
  %1821 = add i64 %1820, 4
  store i64 %1821, ptr %NEXT_PC, align 8
  %1822 = load i64, ptr %RDX, align 8
  %1823 = add i64 %1822, 8
  %1824 = load ptr, ptr %MEMORY, align 8
  %1825 = call ptr @_ZN12_GLOBAL__N_13MOVI3RnWImE2MnImEEEP6MemoryS6_R5StateT_T0_(ptr %1824, ptr %state, ptr %RDX, i64 %1823)
  store ptr %1825, ptr %MEMORY, align 8
  %1826 = load i64, ptr %NEXT_PC, align 8
  store i64 %1826, ptr %PC, align 8
  %1827 = add i64 %1826, 3
  store i64 %1827, ptr %NEXT_PC, align 8
  %1828 = load i64, ptr %RDX, align 8
  %1829 = load i64, ptr %RDX, align 8
  %1830 = load ptr, ptr %MEMORY, align 8
  %1831 = call ptr @_ZN12_GLOBAL__N_14TESTI2RnImLb1EES2_EEP6MemoryS4_R5StateT_T0_(ptr %1830, ptr %state, i64 %1828, i64 %1829)
  store ptr %1831, ptr %MEMORY, align 8
  %1832 = load i64, ptr %NEXT_PC, align 8
  store i64 %1832, ptr %PC, align 8
  %1833 = add i64 %1832, 2
  store i64 %1833, ptr %NEXT_PC, align 8
  %1834 = load i64, ptr %NEXT_PC, align 8
  %1835 = sub i64 %1834, 12
  %1836 = load i64, ptr %NEXT_PC, align 8
  %1837 = load ptr, ptr %MEMORY, align 8
  %1838 = call ptr @_ZN12_GLOBAL__N_13JNZEP6MemoryR5State3RnWIhE2InImES7_S4_ImE(ptr %1837, ptr %state, ptr %BRANCH_TAKEN, i64 %1835, i64 %1836, ptr %NEXT_PC)
  store ptr %1838, ptr %MEMORY, align 8
  br i1 true, label %bb_5395658592, label %bb_5395658604

bb_5395658604:                                    ; preds = %bb_5395658592, %bb_5395658550
  %1839 = load i64, ptr %NEXT_PC, align 8
  store i64 %1839, ptr %PC, align 8
  %1840 = add i64 %1839, 1
  store i64 %1840, ptr %NEXT_PC, align 8
  %1841 = load ptr, ptr %MEMORY, align 8
  %1842 = call ptr @_ZN12_GLOBAL__N_13RETEP6MemoryR5State3RnWImE(ptr %1841, ptr %state, ptr %NEXT_PC)
  store ptr %1842, ptr %MEMORY, align 8
  ret ptr %memory

bb_5395658605:                                    ; No predecessors!
  %1843 = load i64, ptr %NEXT_PC, align 8
  store i64 %1843, ptr %PC, align 8
  %1844 = add i64 %1843, 1
  store i64 %1844, ptr %NEXT_PC, align 8
  %1845 = load ptr, ptr %MEMORY, align 8
  %1846 = call ptr @_ZN12_GLOBAL__N_16DoINT3EP6MemoryR5State3RnWImE(ptr %1845, ptr %state, ptr undef)
  store ptr %1846, ptr %MEMORY, align 8
  %1847 = load i64, ptr %NEXT_PC, align 8
  store i64 %1847, ptr %PC, align 8
  %1848 = add i64 %1847, 1
  store i64 %1848, ptr %NEXT_PC, align 8
  %1849 = load ptr, ptr %MEMORY, align 8
  %1850 = call ptr @_ZN12_GLOBAL__N_16DoINT3EP6MemoryR5State3RnWImE(ptr %1849, ptr %state, ptr undef)
  store ptr %1850, ptr %MEMORY, align 8
  %1851 = load i64, ptr %NEXT_PC, align 8
  store i64 %1851, ptr %PC, align 8
  %1852 = add i64 %1851, 1
  store i64 %1852, ptr %NEXT_PC, align 8
  %1853 = load ptr, ptr %MEMORY, align 8
  %1854 = call ptr @_ZN12_GLOBAL__N_16DoINT3EP6MemoryR5State3RnWImE(ptr %1853, ptr %state, ptr undef)
  store ptr %1854, ptr %MEMORY, align 8
  %1855 = load i64, ptr %NEXT_PC, align 8
  store i64 %1855, ptr %PC, align 8
  %1856 = add i64 %1855, 1
  store i64 %1856, ptr %NEXT_PC, align 8
  %1857 = load ptr, ptr %MEMORY, align 8
  %1858 = call ptr @_ZN12_GLOBAL__N_16DoINT3EP6MemoryR5State3RnWImE(ptr %1857, ptr %state, ptr undef)
  store ptr %1858, ptr %MEMORY, align 8
  %1859 = load i64, ptr %NEXT_PC, align 8
  store i64 %1859, ptr %PC, align 8
  %1860 = add i64 %1859, 1
  store i64 %1860, ptr %NEXT_PC, align 8
  %1861 = load ptr, ptr %MEMORY, align 8
  %1862 = call ptr @_ZN12_GLOBAL__N_16DoINT3EP6MemoryR5State3RnWImE(ptr %1861, ptr %state, ptr undef)
  store ptr %1862, ptr %MEMORY, align 8
  %1863 = load i64, ptr %NEXT_PC, align 8
  store i64 %1863, ptr %PC, align 8
  %1864 = add i64 %1863, 1
  store i64 %1864, ptr %NEXT_PC, align 8
  %1865 = load ptr, ptr %MEMORY, align 8
  %1866 = call ptr @_ZN12_GLOBAL__N_16DoINT3EP6MemoryR5State3RnWImE(ptr %1865, ptr %state, ptr undef)
  store ptr %1866, ptr %MEMORY, align 8
  %1867 = load i64, ptr %NEXT_PC, align 8
  store i64 %1867, ptr %PC, align 8
  %1868 = add i64 %1867, 1
  store i64 %1868, ptr %NEXT_PC, align 8
  %1869 = load ptr, ptr %MEMORY, align 8
  %1870 = call ptr @_ZN12_GLOBAL__N_16DoINT3EP6MemoryR5State3RnWImE(ptr %1869, ptr %state, ptr undef)
  store ptr %1870, ptr %MEMORY, align 8
  %1871 = load i64, ptr %NEXT_PC, align 8
  store i64 %1871, ptr %PC, align 8
  %1872 = add i64 %1871, 1
  store i64 %1872, ptr %NEXT_PC, align 8
  %1873 = load ptr, ptr %MEMORY, align 8
  %1874 = call ptr @_ZN12_GLOBAL__N_16DoINT3EP6MemoryR5State3RnWImE(ptr %1873, ptr %state, ptr undef)
  store ptr %1874, ptr %MEMORY, align 8
  %1875 = load i64, ptr %NEXT_PC, align 8
  store i64 %1875, ptr %PC, align 8
  %1876 = add i64 %1875, 1
  store i64 %1876, ptr %NEXT_PC, align 8
  %1877 = load ptr, ptr %MEMORY, align 8
  %1878 = call ptr @_ZN12_GLOBAL__N_16DoINT3EP6MemoryR5State3RnWImE(ptr %1877, ptr %state, ptr undef)
  store ptr %1878, ptr %MEMORY, align 8
  %1879 = load i64, ptr %NEXT_PC, align 8
  store i64 %1879, ptr %PC, align 8
  %1880 = add i64 %1879, 1
  store i64 %1880, ptr %NEXT_PC, align 8
  %1881 = load ptr, ptr %MEMORY, align 8
  %1882 = call ptr @_ZN12_GLOBAL__N_16DoINT3EP6MemoryR5State3RnWImE(ptr %1881, ptr %state, ptr undef)
  store ptr %1882, ptr %MEMORY, align 8
  %1883 = load i64, ptr %NEXT_PC, align 8
  store i64 %1883, ptr %PC, align 8
  %1884 = add i64 %1883, 1
  store i64 %1884, ptr %NEXT_PC, align 8
  %1885 = load ptr, ptr %MEMORY, align 8
  %1886 = call ptr @_ZN12_GLOBAL__N_16DoINT3EP6MemoryR5State3RnWImE(ptr %1885, ptr %state, ptr undef)
  store ptr %1886, ptr %MEMORY, align 8
  %1887 = load i64, ptr %NEXT_PC, align 8
  store i64 %1887, ptr %PC, align 8
  %1888 = add i64 %1887, 1
  store i64 %1888, ptr %NEXT_PC, align 8
  %1889 = load ptr, ptr %MEMORY, align 8
  %1890 = call ptr @_ZN12_GLOBAL__N_16DoINT3EP6MemoryR5State3RnWImE(ptr %1889, ptr %state, ptr undef)
  store ptr %1890, ptr %MEMORY, align 8
  %1891 = load i64, ptr %NEXT_PC, align 8
  store i64 %1891, ptr %PC, align 8
  %1892 = add i64 %1891, 1
  store i64 %1892, ptr %NEXT_PC, align 8
  %1893 = load ptr, ptr %MEMORY, align 8
  %1894 = call ptr @_ZN12_GLOBAL__N_16DoINT3EP6MemoryR5State3RnWImE(ptr %1893, ptr %state, ptr undef)
  store ptr %1894, ptr %MEMORY, align 8
  %1895 = load i64, ptr %NEXT_PC, align 8
  store i64 %1895, ptr %PC, align 8
  %1896 = add i64 %1895, 1
  store i64 %1896, ptr %NEXT_PC, align 8
  %1897 = load ptr, ptr %MEMORY, align 8
  %1898 = call ptr @_ZN12_GLOBAL__N_16DoINT3EP6MemoryR5State3RnWImE(ptr %1897, ptr %state, ptr undef)
  store ptr %1898, ptr %MEMORY, align 8
  %1899 = load i64, ptr %NEXT_PC, align 8
  store i64 %1899, ptr %PC, align 8
  %1900 = add i64 %1899, 1
  store i64 %1900, ptr %NEXT_PC, align 8
  %1901 = load ptr, ptr %MEMORY, align 8
  %1902 = call ptr @_ZN12_GLOBAL__N_16DoINT3EP6MemoryR5State3RnWImE(ptr %1901, ptr %state, ptr undef)
  store ptr %1902, ptr %MEMORY, align 8
  %1903 = load i64, ptr %NEXT_PC, align 8
  store i64 %1903, ptr %PC, align 8
  %1904 = add i64 %1903, 1
  store i64 %1904, ptr %NEXT_PC, align 8
  %1905 = load ptr, ptr %MEMORY, align 8
  %1906 = call ptr @_ZN12_GLOBAL__N_16DoINT3EP6MemoryR5State3RnWImE(ptr %1905, ptr %state, ptr undef)
  store ptr %1906, ptr %MEMORY, align 8
  %1907 = load i64, ptr %NEXT_PC, align 8
  store i64 %1907, ptr %PC, align 8
  %1908 = add i64 %1907, 1
  store i64 %1908, ptr %NEXT_PC, align 8
  %1909 = load ptr, ptr %MEMORY, align 8
  %1910 = call ptr @_ZN12_GLOBAL__N_16DoINT3EP6MemoryR5State3RnWImE(ptr %1909, ptr %state, ptr undef)
  store ptr %1910, ptr %MEMORY, align 8
  %1911 = load i64, ptr %NEXT_PC, align 8
  store i64 %1911, ptr %PC, align 8
  %1912 = add i64 %1911, 1
  store i64 %1912, ptr %NEXT_PC, align 8
  %1913 = load ptr, ptr %MEMORY, align 8
  %1914 = call ptr @_ZN12_GLOBAL__N_16DoINT3EP6MemoryR5State3RnWImE(ptr %1913, ptr %state, ptr undef)
  store ptr %1914, ptr %MEMORY, align 8
  %1915 = load i64, ptr %NEXT_PC, align 8
  store i64 %1915, ptr %PC, align 8
  %1916 = add i64 %1915, 1
  store i64 %1916, ptr %NEXT_PC, align 8
  %1917 = load ptr, ptr %MEMORY, align 8
  %1918 = call ptr @_ZN12_GLOBAL__N_16DoINT3EP6MemoryR5State3RnWImE(ptr %1917, ptr %state, ptr undef)
  store ptr %1918, ptr %MEMORY, align 8
  %1919 = load i64, ptr %NEXT_PC, align 8
  store i64 %1919, ptr %PC, align 8
  %1920 = add i64 %1919, 3
  store i64 %1920, ptr %NEXT_PC, align 8
  %1921 = load i32, ptr %EDX, align 4
  %1922 = zext i32 %1921 to i64
  %1923 = load ptr, ptr %MEMORY, align 8
  %1924 = call ptr @_ZN12_GLOBAL__N_15MOVSXI3RnWImE2RnIjLb1EElEEP6MemoryS6_R5StateT_T0_(ptr %1923, ptr %state, ptr %RAX, i64 %1922)
  store ptr %1924, ptr %MEMORY, align 8
  %1925 = load i64, ptr %NEXT_PC, align 8
  store i64 %1925, ptr %PC, align 8
  %1926 = add i64 %1925, 4
  store i64 %1926, ptr %NEXT_PC, align 8
  %1927 = load i64, ptr %RAX, align 8
  %1928 = load i64, ptr %RAX, align 8
  %1929 = mul i64 %1928, 4
  %1930 = add i64 %1927, %1929
  %1931 = load ptr, ptr %MEMORY, align 8
  %1932 = call ptr @_ZN12_GLOBAL__N_13LEAI3RnWImE2MnIhEmEEP6MemoryS6_R5StateT_T0_(ptr %1931, ptr %state, ptr %RDX, i64 %1930)
  store ptr %1932, ptr %MEMORY, align 8
  %1933 = load i64, ptr %NEXT_PC, align 8
  store i64 %1933, ptr %PC, align 8
  %1934 = add i64 %1933, 4
  store i64 %1934, ptr %NEXT_PC, align 8
  %1935 = load i64, ptr %RCX, align 8
  %1936 = add i64 %1935, 24
  %1937 = load ptr, ptr %MEMORY, align 8
  %1938 = call ptr @_ZN12_GLOBAL__N_13MOVI3RnWImE2MnImEEEP6MemoryS6_R5StateT_T0_(ptr %1937, ptr %state, ptr %RAX, i64 %1936)
  store ptr %1938, ptr %MEMORY, align 8
  %1939 = load i64, ptr %NEXT_PC, align 8
  store i64 %1939, ptr %PC, align 8
  %1940 = add i64 %1939, 4
  store i64 %1940, ptr %NEXT_PC, align 8
  %1941 = load i64, ptr %RAX, align 8
  %1942 = load i64, ptr %RDX, align 8
  %1943 = mul i64 %1942, 8
  %1944 = add i64 %1941, %1943
  %1945 = load ptr, ptr %MEMORY, align 8
  %1946 = call ptr @_ZN12_GLOBAL__N_13LEAI3RnWImE2MnIhEmEEP6MemoryS6_R5StateT_T0_(ptr %1945, ptr %state, ptr %RAX, i64 %1944)
  store ptr %1946, ptr %MEMORY, align 8
  %1947 = load i64, ptr %NEXT_PC, align 8
  store i64 %1947, ptr %PC, align 8
  %1948 = add i64 %1947, 1
  store i64 %1948, ptr %NEXT_PC, align 8
  %1949 = load ptr, ptr %MEMORY, align 8
  %1950 = call ptr @_ZN12_GLOBAL__N_13RETEP6MemoryR5State3RnWImE(ptr %1949, ptr %state, ptr %NEXT_PC)
  store ptr %1950, ptr %MEMORY, align 8
  ret ptr %memory

bb_5395658640:                                    ; No predecessors!
  %1951 = load i64, ptr %NEXT_PC, align 8
  store i64 %1951, ptr %PC, align 8
  %1952 = add i64 %1951, 1
  store i64 %1952, ptr %NEXT_PC, align 8
  %1953 = load ptr, ptr %MEMORY, align 8
  %1954 = call ptr @_ZN12_GLOBAL__N_16DoINT3EP6MemoryR5State3RnWImE(ptr %1953, ptr %state, ptr undef)
  store ptr %1954, ptr %MEMORY, align 8
  %1955 = load i64, ptr %NEXT_PC, align 8
  store i64 %1955, ptr %PC, align 8
  %1956 = add i64 %1955, 1
  store i64 %1956, ptr %NEXT_PC, align 8
  %1957 = load ptr, ptr %MEMORY, align 8
  %1958 = call ptr @_ZN12_GLOBAL__N_16DoINT3EP6MemoryR5State3RnWImE(ptr %1957, ptr %state, ptr undef)
  store ptr %1958, ptr %MEMORY, align 8
  %1959 = load i64, ptr %NEXT_PC, align 8
  store i64 %1959, ptr %PC, align 8
  %1960 = add i64 %1959, 1
  store i64 %1960, ptr %NEXT_PC, align 8
  %1961 = load ptr, ptr %MEMORY, align 8
  %1962 = call ptr @_ZN12_GLOBAL__N_16DoINT3EP6MemoryR5State3RnWImE(ptr %1961, ptr %state, ptr undef)
  store ptr %1962, ptr %MEMORY, align 8
  %1963 = load i64, ptr %NEXT_PC, align 8
  store i64 %1963, ptr %PC, align 8
  %1964 = add i64 %1963, 1
  store i64 %1964, ptr %NEXT_PC, align 8
  %1965 = load ptr, ptr %MEMORY, align 8
  %1966 = call ptr @_ZN12_GLOBAL__N_16DoINT3EP6MemoryR5State3RnWImE(ptr %1965, ptr %state, ptr undef)
  store ptr %1966, ptr %MEMORY, align 8
  %1967 = load i64, ptr %NEXT_PC, align 8
  store i64 %1967, ptr %PC, align 8
  %1968 = add i64 %1967, 1
  store i64 %1968, ptr %NEXT_PC, align 8
  %1969 = load ptr, ptr %MEMORY, align 8
  %1970 = call ptr @_ZN12_GLOBAL__N_16DoINT3EP6MemoryR5State3RnWImE(ptr %1969, ptr %state, ptr undef)
  store ptr %1970, ptr %MEMORY, align 8
  %1971 = load i64, ptr %NEXT_PC, align 8
  store i64 %1971, ptr %PC, align 8
  %1972 = add i64 %1971, 1
  store i64 %1972, ptr %NEXT_PC, align 8
  %1973 = load ptr, ptr %MEMORY, align 8
  %1974 = call ptr @_ZN12_GLOBAL__N_16DoINT3EP6MemoryR5State3RnWImE(ptr %1973, ptr %state, ptr undef)
  store ptr %1974, ptr %MEMORY, align 8
  %1975 = load i64, ptr %NEXT_PC, align 8
  store i64 %1975, ptr %PC, align 8
  %1976 = add i64 %1975, 1
  store i64 %1976, ptr %NEXT_PC, align 8
  %1977 = load ptr, ptr %MEMORY, align 8
  %1978 = call ptr @_ZN12_GLOBAL__N_16DoINT3EP6MemoryR5State3RnWImE(ptr %1977, ptr %state, ptr undef)
  store ptr %1978, ptr %MEMORY, align 8
  %1979 = load i64, ptr %NEXT_PC, align 8
  store i64 %1979, ptr %PC, align 8
  %1980 = add i64 %1979, 1
  store i64 %1980, ptr %NEXT_PC, align 8
  %1981 = load ptr, ptr %MEMORY, align 8
  %1982 = call ptr @_ZN12_GLOBAL__N_16DoINT3EP6MemoryR5State3RnWImE(ptr %1981, ptr %state, ptr undef)
  store ptr %1982, ptr %MEMORY, align 8
  %1983 = load i64, ptr %NEXT_PC, align 8
  store i64 %1983, ptr %PC, align 8
  %1984 = add i64 %1983, 1
  store i64 %1984, ptr %NEXT_PC, align 8
  %1985 = load ptr, ptr %MEMORY, align 8
  %1986 = call ptr @_ZN12_GLOBAL__N_16DoINT3EP6MemoryR5State3RnWImE(ptr %1985, ptr %state, ptr undef)
  store ptr %1986, ptr %MEMORY, align 8
  %1987 = load i64, ptr %NEXT_PC, align 8
  store i64 %1987, ptr %PC, align 8
  %1988 = add i64 %1987, 1
  store i64 %1988, ptr %NEXT_PC, align 8
  %1989 = load ptr, ptr %MEMORY, align 8
  %1990 = call ptr @_ZN12_GLOBAL__N_16DoINT3EP6MemoryR5State3RnWImE(ptr %1989, ptr %state, ptr undef)
  store ptr %1990, ptr %MEMORY, align 8
  %1991 = load i64, ptr %NEXT_PC, align 8
  store i64 %1991, ptr %PC, align 8
  %1992 = add i64 %1991, 1
  store i64 %1992, ptr %NEXT_PC, align 8
  %1993 = load ptr, ptr %MEMORY, align 8
  %1994 = call ptr @_ZN12_GLOBAL__N_16DoINT3EP6MemoryR5State3RnWImE(ptr %1993, ptr %state, ptr undef)
  store ptr %1994, ptr %MEMORY, align 8
  %1995 = load i64, ptr %NEXT_PC, align 8
  store i64 %1995, ptr %PC, align 8
  %1996 = add i64 %1995, 1
  store i64 %1996, ptr %NEXT_PC, align 8
  %1997 = load ptr, ptr %MEMORY, align 8
  %1998 = call ptr @_ZN12_GLOBAL__N_16DoINT3EP6MemoryR5State3RnWImE(ptr %1997, ptr %state, ptr undef)
  store ptr %1998, ptr %MEMORY, align 8
  %1999 = load i64, ptr %NEXT_PC, align 8
  store i64 %1999, ptr %PC, align 8
  %2000 = add i64 %1999, 1
  store i64 %2000, ptr %NEXT_PC, align 8
  %2001 = load ptr, ptr %MEMORY, align 8
  %2002 = call ptr @_ZN12_GLOBAL__N_16DoINT3EP6MemoryR5State3RnWImE(ptr %2001, ptr %state, ptr undef)
  store ptr %2002, ptr %MEMORY, align 8
  %2003 = load i64, ptr %NEXT_PC, align 8
  store i64 %2003, ptr %PC, align 8
  %2004 = add i64 %2003, 1
  store i64 %2004, ptr %NEXT_PC, align 8
  %2005 = load ptr, ptr %MEMORY, align 8
  %2006 = call ptr @_ZN12_GLOBAL__N_16DoINT3EP6MemoryR5State3RnWImE(ptr %2005, ptr %state, ptr undef)
  store ptr %2006, ptr %MEMORY, align 8
  %2007 = load i64, ptr %NEXT_PC, align 8
  store i64 %2007, ptr %PC, align 8
  %2008 = add i64 %2007, 1
  store i64 %2008, ptr %NEXT_PC, align 8
  %2009 = load ptr, ptr %MEMORY, align 8
  %2010 = call ptr @_ZN12_GLOBAL__N_16DoINT3EP6MemoryR5State3RnWImE(ptr %2009, ptr %state, ptr undef)
  store ptr %2010, ptr %MEMORY, align 8
  %2011 = load i64, ptr %NEXT_PC, align 8
  store i64 %2011, ptr %PC, align 8
  %2012 = add i64 %2011, 1
  store i64 %2012, ptr %NEXT_PC, align 8
  %2013 = load ptr, ptr %MEMORY, align 8
  %2014 = call ptr @_ZN12_GLOBAL__N_16DoINT3EP6MemoryR5State3RnWImE(ptr %2013, ptr %state, ptr undef)
  store ptr %2014, ptr %MEMORY, align 8
  %2015 = load i64, ptr %NEXT_PC, align 8
  store i64 %2015, ptr %PC, align 8
  %2016 = add i64 %2015, 5
  store i64 %2016, ptr %NEXT_PC, align 8
  %2017 = load i64, ptr %RSP, align 8
  %2018 = add i64 %2017, 8
  %2019 = load i64, ptr %RBX, align 8
  %2020 = load ptr, ptr %MEMORY, align 8
  %2021 = call ptr @_ZN12_GLOBAL__N_13MOVI3MnWImE2RnImLb1EEEEP6MemoryS6_R5StateT_T0_(ptr %2020, ptr %state, i64 %2018, i64 %2019)
  store ptr %2021, ptr %MEMORY, align 8
  %2022 = load i64, ptr %NEXT_PC, align 8
  store i64 %2022, ptr %PC, align 8
  %2023 = add i64 %2022, 5
  store i64 %2023, ptr %NEXT_PC, align 8
  %2024 = load i64, ptr %RSP, align 8
  %2025 = add i64 %2024, 16
  %2026 = load i64, ptr %RBP, align 8
  %2027 = load ptr, ptr %MEMORY, align 8
  %2028 = call ptr @_ZN12_GLOBAL__N_13MOVI3MnWImE2RnImLb1EEEEP6MemoryS6_R5StateT_T0_(ptr %2027, ptr %state, i64 %2025, i64 %2026)
  store ptr %2028, ptr %MEMORY, align 8
  %2029 = load i64, ptr %NEXT_PC, align 8
  store i64 %2029, ptr %PC, align 8
  %2030 = add i64 %2029, 5
  store i64 %2030, ptr %NEXT_PC, align 8
  %2031 = load i64, ptr %RSP, align 8
  %2032 = add i64 %2031, 24
  %2033 = load i64, ptr %RSI, align 8
  %2034 = load ptr, ptr %MEMORY, align 8
  %2035 = call ptr @_ZN12_GLOBAL__N_13MOVI3MnWImE2RnImLb1EEEEP6MemoryS6_R5StateT_T0_(ptr %2034, ptr %state, i64 %2032, i64 %2033)
  store ptr %2035, ptr %MEMORY, align 8
  %2036 = load i64, ptr %NEXT_PC, align 8
  store i64 %2036, ptr %PC, align 8
  %2037 = add i64 %2036, 1
  store i64 %2037, ptr %NEXT_PC, align 8
  %2038 = load i64, ptr %RDI, align 8
  %2039 = load ptr, ptr %MEMORY, align 8
  %2040 = call ptr @_ZN12_GLOBAL__N_14PUSHI2InImEEEP6MemoryS4_R5StateT_(ptr %2039, ptr %state, i64 %2038)
  store ptr %2040, ptr %MEMORY, align 8
  %2041 = load i64, ptr %NEXT_PC, align 8
  store i64 %2041, ptr %PC, align 8
  %2042 = add i64 %2041, 4
  store i64 %2042, ptr %NEXT_PC, align 8
  %2043 = load i64, ptr %RSP, align 8
  %2044 = load ptr, ptr %MEMORY, align 8
  %2045 = call ptr @_ZN12_GLOBAL__N_13SUBI3RnWImE2RnImLb1EE2InImEEEP6MemoryS8_R5StateT_T0_T1_(ptr %2044, ptr %state, ptr %RSP, i64 %2043, i64 32)
  store ptr %2045, ptr %MEMORY, align 8
  %2046 = load i64, ptr %NEXT_PC, align 8
  store i64 %2046, ptr %PC, align 8
  %2047 = add i64 %2046, 3
  store i64 %2047, ptr %NEXT_PC, align 8
  %2048 = load i64, ptr %RDX, align 8
  %2049 = load ptr, ptr %MEMORY, align 8
  %2050 = call ptr @_ZN12_GLOBAL__N_13MOVI3RnWImE2RnImLb1EEEEP6MemoryS6_R5StateT_T0_(ptr %2049, ptr %state, ptr %RBP, i64 %2048)
  store ptr %2050, ptr %MEMORY, align 8
  %2051 = load i64, ptr %NEXT_PC, align 8
  store i64 %2051, ptr %PC, align 8
  %2052 = add i64 %2051, 3
  store i64 %2052, ptr %NEXT_PC, align 8
  %2053 = load i64, ptr %RCX, align 8
  %2054 = load ptr, ptr %MEMORY, align 8
  %2055 = call ptr @_ZN12_GLOBAL__N_13MOVI3RnWImE2RnImLb1EEEEP6MemoryS6_R5StateT_T0_(ptr %2054, ptr %state, ptr %RDI, i64 %2053)
  store ptr %2055, ptr %MEMORY, align 8
  %2056 = load i64, ptr %NEXT_PC, align 8
  store i64 %2056, ptr %PC, align 8
  %2057 = add i64 %2056, 2
  store i64 %2057, ptr %NEXT_PC, align 8
  %2058 = load i64, ptr %RBX, align 8
  %2059 = load i32, ptr %EBX, align 4
  %2060 = zext i32 %2059 to i64
  %2061 = load ptr, ptr %MEMORY, align 8
  %2062 = call ptr @_ZN12_GLOBAL__N_13XORI3RnWImE2RnIjLb1EES4_EEP6MemoryS6_R5StateT_T0_T1_(ptr %2061, ptr %state, ptr %RBX, i64 %2058, i64 %2060)
  store ptr %2062, ptr %MEMORY, align 8
  %2063 = load i64, ptr %NEXT_PC, align 8
  store i64 %2063, ptr %PC, align 8
  %2064 = add i64 %2063, 5
  store i64 %2064, ptr %NEXT_PC, align 8
  %2065 = load i64, ptr %NEXT_PC, align 8
  %2066 = add i64 %2065, 95
  %2067 = load i64, ptr %NEXT_PC, align 8
  %2068 = load ptr, ptr %MEMORY, align 8
  %2069 = call ptr @_ZN12_GLOBAL__N_14CALLI2InImEEEP6MemoryS4_R5StateT_3RnWImES2_S9_(ptr %2068, ptr %state, i64 %2066, ptr %NEXT_PC, i64 %2067, ptr %RETURN_PC)
  store ptr %2069, ptr %MEMORY, align 8
  %2070 = load i64, ptr %NEXT_PC, align 8
  store i64 %2070, ptr %PC, align 8
  %2071 = add i64 %2070, 2
  store i64 %2071, ptr %NEXT_PC, align 8
  %2072 = load i32, ptr %EAX, align 4
  %2073 = zext i32 %2072 to i64
  %2074 = load i32, ptr %EAX, align 4
  %2075 = zext i32 %2074 to i64
  %2076 = load ptr, ptr %MEMORY, align 8
  %2077 = call ptr @_ZN12_GLOBAL__N_14TESTI2RnIjLb1EES2_EEP6MemoryS4_R5StateT_T0_(ptr %2076, ptr %state, i64 %2073, i64 %2075)
  store ptr %2077, ptr %MEMORY, align 8
  %2078 = load i64, ptr %NEXT_PC, align 8
  store i64 %2078, ptr %PC, align 8
  %2079 = add i64 %2078, 2
  store i64 %2079, ptr %NEXT_PC, align 8
  %2080 = load i64, ptr %NEXT_PC, align 8
  %2081 = add i64 %2080, 42
  %2082 = load i64, ptr %NEXT_PC, align 8
  %2083 = load ptr, ptr %MEMORY, align 8
  %2084 = call ptr @_ZN12_GLOBAL__N_13JLEEP6MemoryR5State3RnWIhE2InImES7_S4_ImE(ptr %2083, ptr %state, ptr %BRANCH_TAKEN, i64 %2081, i64 %2082, ptr %NEXT_PC)
  store ptr %2084, ptr %MEMORY, align 8
  br i1 true, label %bb_5395658735, label %bb_5395658693

bb_5395658693:                                    ; preds = %bb_5395658721, %bb_5395658640
  %2085 = load i64, ptr %NEXT_PC, align 8
  store i64 %2085, ptr %PC, align 8
  %2086 = add i64 %2085, 2
  store i64 %2086, ptr %NEXT_PC, align 8
  %2087 = load i32, ptr %EBX, align 4
  %2088 = zext i32 %2087 to i64
  %2089 = load ptr, ptr %MEMORY, align 8
  %2090 = call ptr @_ZN12_GLOBAL__N_13MOVI3RnWImE2RnIjLb1EEEEP6MemoryS6_R5StateT_T0_(ptr %2089, ptr %state, ptr %RDX, i64 %2088)
  store ptr %2090, ptr %MEMORY, align 8
  %2091 = load i64, ptr %NEXT_PC, align 8
  store i64 %2091, ptr %PC, align 8
  %2092 = add i64 %2091, 3
  store i64 %2092, ptr %NEXT_PC, align 8
  %2093 = load i64, ptr %RDI, align 8
  %2094 = load ptr, ptr %MEMORY, align 8
  %2095 = call ptr @_ZN12_GLOBAL__N_13MOVI3RnWImE2RnImLb1EEEEP6MemoryS6_R5StateT_T0_(ptr %2094, ptr %state, ptr %RCX, i64 %2093)
  store ptr %2095, ptr %MEMORY, align 8
  %2096 = load i64, ptr %NEXT_PC, align 8
  store i64 %2096, ptr %PC, align 8
  %2097 = add i64 %2096, 5
  store i64 %2097, ptr %NEXT_PC, align 8
  %2098 = load i64, ptr %NEXT_PC, align 8
  %2099 = sub i64 %2098, 79
  %2100 = load i64, ptr %NEXT_PC, align 8
  %2101 = load ptr, ptr %MEMORY, align 8
  %2102 = call ptr @_ZN12_GLOBAL__N_14CALLI2InImEEEP6MemoryS4_R5StateT_3RnWImES2_S9_(ptr %2101, ptr %state, i64 %2099, ptr %NEXT_PC, i64 %2100, ptr %RETURN_PC)
  store ptr %2102, ptr %MEMORY, align 8
  %2103 = load i64, ptr %NEXT_PC, align 8
  store i64 %2103, ptr %PC, align 8
  %2104 = add i64 %2103, 3
  store i64 %2104, ptr %NEXT_PC, align 8
  %2105 = load i64, ptr %RBP, align 8
  %2106 = load ptr, ptr %MEMORY, align 8
  %2107 = call ptr @_ZN12_GLOBAL__N_13MOVI3RnWImE2RnImLb1EEEEP6MemoryS6_R5StateT_T0_(ptr %2106, ptr %state, ptr %RDX, i64 %2105)
  store ptr %2107, ptr %MEMORY, align 8
  %2108 = load i64, ptr %NEXT_PC, align 8
  store i64 %2108, ptr %PC, align 8
  %2109 = add i64 %2108, 3
  store i64 %2109, ptr %NEXT_PC, align 8
  %2110 = load i64, ptr %RAX, align 8
  %2111 = load ptr, ptr %MEMORY, align 8
  %2112 = call ptr @_ZN12_GLOBAL__N_13MOVI3RnWImE2RnImLb1EEEEP6MemoryS6_R5StateT_T0_(ptr %2111, ptr %state, ptr %RSI, i64 %2110)
  store ptr %2112, ptr %MEMORY, align 8
  %2113 = load i64, ptr %NEXT_PC, align 8
  store i64 %2113, ptr %PC, align 8
  %2114 = add i64 %2113, 3
  store i64 %2114, ptr %NEXT_PC, align 8
  %2115 = load i64, ptr %RAX, align 8
  %2116 = load ptr, ptr %MEMORY, align 8
  %2117 = call ptr @_ZN12_GLOBAL__N_13MOVI3RnWImE2MnImEEEP6MemoryS6_R5StateT_T0_(ptr %2116, ptr %state, ptr %RCX, i64 %2115)
  store ptr %2117, ptr %MEMORY, align 8
  %2118 = load i64, ptr %NEXT_PC, align 8
  store i64 %2118, ptr %PC, align 8
  %2119 = add i64 %2118, 5
  store i64 %2119, ptr %NEXT_PC, align 8
  %2120 = load i64, ptr %NEXT_PC, align 8
  %2121 = add i64 %2120, 45603
  %2122 = load i64, ptr %NEXT_PC, align 8
  %2123 = load ptr, ptr %MEMORY, align 8
  %2124 = call ptr @_ZN12_GLOBAL__N_14CALLI2InImEEEP6MemoryS4_R5StateT_3RnWImES2_S9_(ptr %2123, ptr %state, i64 %2121, ptr %NEXT_PC, i64 %2122, ptr %RETURN_PC)
  store ptr %2124, ptr %MEMORY, align 8
  %2125 = load i64, ptr %NEXT_PC, align 8
  store i64 %2125, ptr %PC, align 8
  %2126 = add i64 %2125, 2
  store i64 %2126, ptr %NEXT_PC, align 8
  %2127 = load i32, ptr %EAX, align 4
  %2128 = zext i32 %2127 to i64
  %2129 = load i32, ptr %EAX, align 4
  %2130 = zext i32 %2129 to i64
  %2131 = load ptr, ptr %MEMORY, align 8
  %2132 = call ptr @_ZN12_GLOBAL__N_14TESTI2RnIjLb1EES2_EEP6MemoryS4_R5StateT_T0_(ptr %2131, ptr %state, i64 %2128, i64 %2130)
  store ptr %2132, ptr %MEMORY, align 8
  %2133 = load i64, ptr %NEXT_PC, align 8
  store i64 %2133, ptr %PC, align 8
  %2134 = add i64 %2133, 2
  store i64 %2134, ptr %NEXT_PC, align 8
  %2135 = load i64, ptr %NEXT_PC, align 8
  %2136 = add i64 %2135, 37
  %2137 = load i64, ptr %NEXT_PC, align 8
  %2138 = load ptr, ptr %MEMORY, align 8
  %2139 = call ptr @_ZN12_GLOBAL__N_12JZEP6MemoryR5State3RnWIhE2InImES7_S4_ImE(ptr %2138, ptr %state, ptr %BRANCH_TAKEN, i64 %2136, i64 %2137, ptr %NEXT_PC)
  store ptr %2139, ptr %MEMORY, align 8
  br i1 true, label %bb_5395658758, label %bb_5395658721

bb_5395658721:                                    ; preds = %bb_5395658693
  %2140 = load i64, ptr %NEXT_PC, align 8
  store i64 %2140, ptr %PC, align 8
  %2141 = add i64 %2140, 3
  store i64 %2141, ptr %NEXT_PC, align 8
  %2142 = load i64, ptr %RDI, align 8
  %2143 = load ptr, ptr %MEMORY, align 8
  %2144 = call ptr @_ZN12_GLOBAL__N_13MOVI3RnWImE2RnImLb1EEEEP6MemoryS6_R5StateT_T0_(ptr %2143, ptr %state, ptr %RCX, i64 %2142)
  store ptr %2144, ptr %MEMORY, align 8
  %2145 = load i64, ptr %NEXT_PC, align 8
  store i64 %2145, ptr %PC, align 8
  %2146 = add i64 %2145, 2
  store i64 %2146, ptr %NEXT_PC, align 8
  %2147 = load i64, ptr %RBX, align 8
  %2148 = load ptr, ptr %MEMORY, align 8
  %2149 = call ptr @_ZN12_GLOBAL__N_13INCI3RnWImE2RnIjLb1EEEEP6MemoryS6_R5StateT_T0_(ptr %2148, ptr %state, ptr %RBX, i64 %2147)
  store ptr %2149, ptr %MEMORY, align 8
  %2150 = load i64, ptr %NEXT_PC, align 8
  store i64 %2150, ptr %PC, align 8
  %2151 = add i64 %2150, 5
  store i64 %2151, ptr %NEXT_PC, align 8
  %2152 = load i64, ptr %NEXT_PC, align 8
  %2153 = add i64 %2152, 53
  %2154 = load i64, ptr %NEXT_PC, align 8
  %2155 = load ptr, ptr %MEMORY, align 8
  %2156 = call ptr @_ZN12_GLOBAL__N_14CALLI2InImEEEP6MemoryS4_R5StateT_3RnWImES2_S9_(ptr %2155, ptr %state, i64 %2153, ptr %NEXT_PC, i64 %2154, ptr %RETURN_PC)
  store ptr %2156, ptr %MEMORY, align 8
  %2157 = load i64, ptr %NEXT_PC, align 8
  store i64 %2157, ptr %PC, align 8
  %2158 = add i64 %2157, 2
  store i64 %2158, ptr %NEXT_PC, align 8
  %2159 = load i32, ptr %EBX, align 4
  %2160 = zext i32 %2159 to i64
  %2161 = load i32, ptr %EAX, align 4
  %2162 = zext i32 %2161 to i64
  %2163 = load ptr, ptr %MEMORY, align 8
  %2164 = call ptr @_ZN12_GLOBAL__N_13CMPI2RnIjLb1EES2_EEP6MemoryS4_R5StateT_T0_(ptr %2163, ptr %state, i64 %2160, i64 %2162)
  store ptr %2164, ptr %MEMORY, align 8
  %2165 = load i64, ptr %NEXT_PC, align 8
  store i64 %2165, ptr %PC, align 8
  %2166 = add i64 %2165, 2
  store i64 %2166, ptr %NEXT_PC, align 8
  %2167 = load i64, ptr %NEXT_PC, align 8
  %2168 = sub i64 %2167, 42
  %2169 = load i64, ptr %NEXT_PC, align 8
  %2170 = load ptr, ptr %MEMORY, align 8
  %2171 = call ptr @_ZN12_GLOBAL__N_12JLEP6MemoryR5State3RnWIhE2InImES7_S4_ImE(ptr %2170, ptr %state, ptr %BRANCH_TAKEN, i64 %2168, i64 %2169, ptr %NEXT_PC)
  store ptr %2171, ptr %MEMORY, align 8
  br i1 true, label %bb_5395658693, label %bb_5395658735

bb_5395658735:                                    ; preds = %bb_5395658721, %bb_5395658640
  %2172 = load i64, ptr %NEXT_PC, align 8
  store i64 %2172, ptr %PC, align 8
  %2173 = add i64 %2172, 2
  store i64 %2173, ptr %NEXT_PC, align 8
  %2174 = load i64, ptr %RAX, align 8
  %2175 = load i32, ptr %EAX, align 4
  %2176 = zext i32 %2175 to i64
  %2177 = load ptr, ptr %MEMORY, align 8
  %2178 = call ptr @_ZN12_GLOBAL__N_13XORI3RnWImE2RnIjLb1EES4_EEP6MemoryS6_R5StateT_T0_T1_(ptr %2177, ptr %state, ptr %RAX, i64 %2174, i64 %2176)
  store ptr %2178, ptr %MEMORY, align 8
  br label %bb_5395658737

bb_5395658737:                                    ; preds = %bb_5395658758, %bb_5395658735
  %2179 = load i64, ptr %NEXT_PC, align 8
  store i64 %2179, ptr %PC, align 8
  %2180 = add i64 %2179, 5
  store i64 %2180, ptr %NEXT_PC, align 8
  %2181 = load i64, ptr %RSP, align 8
  %2182 = add i64 %2181, 48
  %2183 = load ptr, ptr %MEMORY, align 8
  %2184 = call ptr @_ZN12_GLOBAL__N_13MOVI3RnWImE2MnImEEEP6MemoryS6_R5StateT_T0_(ptr %2183, ptr %state, ptr %RBX, i64 %2182)
  store ptr %2184, ptr %MEMORY, align 8
  %2185 = load i64, ptr %NEXT_PC, align 8
  store i64 %2185, ptr %PC, align 8
  %2186 = add i64 %2185, 5
  store i64 %2186, ptr %NEXT_PC, align 8
  %2187 = load i64, ptr %RSP, align 8
  %2188 = add i64 %2187, 56
  %2189 = load ptr, ptr %MEMORY, align 8
  %2190 = call ptr @_ZN12_GLOBAL__N_13MOVI3RnWImE2MnImEEEP6MemoryS6_R5StateT_T0_(ptr %2189, ptr %state, ptr %RBP, i64 %2188)
  store ptr %2190, ptr %MEMORY, align 8
  %2191 = load i64, ptr %NEXT_PC, align 8
  store i64 %2191, ptr %PC, align 8
  %2192 = add i64 %2191, 5
  store i64 %2192, ptr %NEXT_PC, align 8
  %2193 = load i64, ptr %RSP, align 8
  %2194 = add i64 %2193, 64
  %2195 = load ptr, ptr %MEMORY, align 8
  %2196 = call ptr @_ZN12_GLOBAL__N_13MOVI3RnWImE2MnImEEEP6MemoryS6_R5StateT_T0_(ptr %2195, ptr %state, ptr %RSI, i64 %2194)
  store ptr %2196, ptr %MEMORY, align 8
  %2197 = load i64, ptr %NEXT_PC, align 8
  store i64 %2197, ptr %PC, align 8
  %2198 = add i64 %2197, 4
  store i64 %2198, ptr %NEXT_PC, align 8
  %2199 = load i64, ptr %RSP, align 8
  %2200 = load ptr, ptr %MEMORY, align 8
  %2201 = call ptr @_ZN12_GLOBAL__N_13ADDI3RnWImE2RnImLb1EE2InImEEEP6MemoryS8_R5StateT_T0_T1_(ptr %2200, ptr %state, ptr %RSP, i64 %2199, i64 32)
  store ptr %2201, ptr %MEMORY, align 8
  %2202 = load i64, ptr %NEXT_PC, align 8
  store i64 %2202, ptr %PC, align 8
  %2203 = add i64 %2202, 1
  store i64 %2203, ptr %NEXT_PC, align 8
  %2204 = load ptr, ptr %MEMORY, align 8
  %2205 = call ptr @_ZN12_GLOBAL__N_13POPI3RnWImEEEP6MemoryS4_R5StateT_(ptr %2204, ptr %state, ptr %RDI)
  store ptr %2205, ptr %MEMORY, align 8
  %2206 = load i64, ptr %NEXT_PC, align 8
  store i64 %2206, ptr %PC, align 8
  %2207 = add i64 %2206, 1
  store i64 %2207, ptr %NEXT_PC, align 8
  %2208 = load ptr, ptr %MEMORY, align 8
  %2209 = call ptr @_ZN12_GLOBAL__N_13RETEP6MemoryR5State3RnWImE(ptr %2208, ptr %state, ptr %NEXT_PC)
  store ptr %2209, ptr %MEMORY, align 8
  ret ptr %memory

bb_5395658758:                                    ; preds = %bb_5395658693
  %2210 = load i64, ptr %NEXT_PC, align 8
  store i64 %2210, ptr %PC, align 8
  %2211 = add i64 %2210, 3
  store i64 %2211, ptr %NEXT_PC, align 8
  %2212 = load i64, ptr %RSI, align 8
  %2213 = load ptr, ptr %MEMORY, align 8
  %2214 = call ptr @_ZN12_GLOBAL__N_13MOVI3RnWImE2RnImLb1EEEEP6MemoryS6_R5StateT_T0_(ptr %2213, ptr %state, ptr %RAX, i64 %2212)
  store ptr %2214, ptr %MEMORY, align 8
  %2215 = load i64, ptr %NEXT_PC, align 8
  store i64 %2215, ptr %PC, align 8
  %2216 = add i64 %2215, 2
  store i64 %2216, ptr %NEXT_PC, align 8
  %2217 = load i64, ptr %NEXT_PC, align 8
  %2218 = sub i64 %2217, 26
  %2219 = load ptr, ptr %MEMORY, align 8
  %2220 = call ptr @_ZN12_GLOBAL__N_13JMPI2InImEEEP6MemoryS4_R5StateT_3RnWImE(ptr %2219, ptr %state, i64 %2218, ptr %NEXT_PC)
  store ptr %2220, ptr %MEMORY, align 8
  br label %bb_5395658737
  %2221 = load i64, ptr %NEXT_PC, align 8
  store i64 %2221, ptr %PC, align 8
  %2222 = add i64 %2221, 1
  store i64 %2222, ptr %NEXT_PC, align 8
  %2223 = load ptr, ptr %MEMORY, align 8
  %2224 = call ptr @_ZN12_GLOBAL__N_16DoINT3EP6MemoryR5State3RnWImE(ptr %2223, ptr %state, ptr undef)
  store ptr %2224, ptr %MEMORY, align 8
  %2225 = load i64, ptr %NEXT_PC, align 8
  store i64 %2225, ptr %PC, align 8
  %2226 = add i64 %2225, 1
  store i64 %2226, ptr %NEXT_PC, align 8
  %2227 = load ptr, ptr %MEMORY, align 8
  %2228 = call ptr @_ZN12_GLOBAL__N_16DoINT3EP6MemoryR5State3RnWImE(ptr %2227, ptr %state, ptr undef)
  store ptr %2228, ptr %MEMORY, align 8
  %2229 = load i64, ptr %NEXT_PC, align 8
  store i64 %2229, ptr %PC, align 8
  %2230 = add i64 %2229, 1
  store i64 %2230, ptr %NEXT_PC, align 8
  %2231 = load ptr, ptr %MEMORY, align 8
  %2232 = call ptr @_ZN12_GLOBAL__N_16DoINT3EP6MemoryR5State3RnWImE(ptr %2231, ptr %state, ptr undef)
  store ptr %2232, ptr %MEMORY, align 8
  %2233 = load i64, ptr %NEXT_PC, align 8
  store i64 %2233, ptr %PC, align 8
  %2234 = add i64 %2233, 1
  store i64 %2234, ptr %NEXT_PC, align 8
  %2235 = load ptr, ptr %MEMORY, align 8
  %2236 = call ptr @_ZN12_GLOBAL__N_16DoINT3EP6MemoryR5State3RnWImE(ptr %2235, ptr %state, ptr undef)
  store ptr %2236, ptr %MEMORY, align 8
  %2237 = load i64, ptr %NEXT_PC, align 8
  store i64 %2237, ptr %PC, align 8
  %2238 = add i64 %2237, 1
  store i64 %2238, ptr %NEXT_PC, align 8
  %2239 = load ptr, ptr %MEMORY, align 8
  %2240 = call ptr @_ZN12_GLOBAL__N_16DoINT3EP6MemoryR5State3RnWImE(ptr %2239, ptr %state, ptr undef)
  store ptr %2240, ptr %MEMORY, align 8
  %2241 = load i64, ptr %NEXT_PC, align 8
  store i64 %2241, ptr %PC, align 8
  %2242 = add i64 %2241, 1
  store i64 %2242, ptr %NEXT_PC, align 8
  %2243 = load ptr, ptr %MEMORY, align 8
  %2244 = call ptr @_ZN12_GLOBAL__N_16DoINT3EP6MemoryR5State3RnWImE(ptr %2243, ptr %state, ptr undef)
  store ptr %2244, ptr %MEMORY, align 8
  %2245 = load i64, ptr %NEXT_PC, align 8
  store i64 %2245, ptr %PC, align 8
  %2246 = add i64 %2245, 1
  store i64 %2246, ptr %NEXT_PC, align 8
  %2247 = load ptr, ptr %MEMORY, align 8
  %2248 = call ptr @_ZN12_GLOBAL__N_16DoINT3EP6MemoryR5State3RnWImE(ptr %2247, ptr %state, ptr undef)
  store ptr %2248, ptr %MEMORY, align 8
  %2249 = load i64, ptr %NEXT_PC, align 8
  store i64 %2249, ptr %PC, align 8
  %2250 = add i64 %2249, 1
  store i64 %2250, ptr %NEXT_PC, align 8
  %2251 = load ptr, ptr %MEMORY, align 8
  %2252 = call ptr @_ZN12_GLOBAL__N_16DoINT3EP6MemoryR5State3RnWImE(ptr %2251, ptr %state, ptr undef)
  store ptr %2252, ptr %MEMORY, align 8
  %2253 = load i64, ptr %NEXT_PC, align 8
  store i64 %2253, ptr %PC, align 8
  %2254 = add i64 %2253, 1
  store i64 %2254, ptr %NEXT_PC, align 8
  %2255 = load ptr, ptr %MEMORY, align 8
  %2256 = call ptr @_ZN12_GLOBAL__N_16DoINT3EP6MemoryR5State3RnWImE(ptr %2255, ptr %state, ptr undef)
  store ptr %2256, ptr %MEMORY, align 8
  %2257 = load i64, ptr %NEXT_PC, align 8
  store i64 %2257, ptr %PC, align 8
  %2258 = add i64 %2257, 1
  store i64 %2258, ptr %NEXT_PC, align 8
  %2259 = load ptr, ptr %MEMORY, align 8
  %2260 = call ptr @_ZN12_GLOBAL__N_16DoINT3EP6MemoryR5State3RnWImE(ptr %2259, ptr %state, ptr undef)
  store ptr %2260, ptr %MEMORY, align 8
  %2261 = load i64, ptr %NEXT_PC, align 8
  store i64 %2261, ptr %PC, align 8
  %2262 = add i64 %2261, 1
  store i64 %2262, ptr %NEXT_PC, align 8
  %2263 = load ptr, ptr %MEMORY, align 8
  %2264 = call ptr @_ZN12_GLOBAL__N_16DoINT3EP6MemoryR5State3RnWImE(ptr %2263, ptr %state, ptr undef)
  store ptr %2264, ptr %MEMORY, align 8
  %2265 = load i64, ptr %NEXT_PC, align 8
  store i64 %2265, ptr %PC, align 8
  %2266 = add i64 %2265, 1
  store i64 %2266, ptr %NEXT_PC, align 8
  %2267 = load ptr, ptr %MEMORY, align 8
  %2268 = call ptr @_ZN12_GLOBAL__N_16DoINT3EP6MemoryR5State3RnWImE(ptr %2267, ptr %state, ptr undef)
  store ptr %2268, ptr %MEMORY, align 8
  %2269 = load i64, ptr %NEXT_PC, align 8
  store i64 %2269, ptr %PC, align 8
  %2270 = add i64 %2269, 1
  store i64 %2270, ptr %NEXT_PC, align 8
  %2271 = load ptr, ptr %MEMORY, align 8
  %2272 = call ptr @_ZN12_GLOBAL__N_16DoINT3EP6MemoryR5State3RnWImE(ptr %2271, ptr %state, ptr undef)
  store ptr %2272, ptr %MEMORY, align 8
  %2273 = load i64, ptr %NEXT_PC, align 8
  store i64 %2273, ptr %PC, align 8
  %2274 = add i64 %2273, 1
  store i64 %2274, ptr %NEXT_PC, align 8
  %2275 = load ptr, ptr %MEMORY, align 8
  %2276 = call ptr @_ZN12_GLOBAL__N_16DoINT3EP6MemoryR5State3RnWImE(ptr %2275, ptr %state, ptr undef)
  store ptr %2276, ptr %MEMORY, align 8
  %2277 = load i64, ptr %NEXT_PC, align 8
  store i64 %2277, ptr %PC, align 8
  %2278 = add i64 %2277, 1
  store i64 %2278, ptr %NEXT_PC, align 8
  %2279 = load ptr, ptr %MEMORY, align 8
  %2280 = call ptr @_ZN12_GLOBAL__N_16DoINT3EP6MemoryR5State3RnWImE(ptr %2279, ptr %state, ptr undef)
  store ptr %2280, ptr %MEMORY, align 8
  %2281 = load i64, ptr %NEXT_PC, align 8
  store i64 %2281, ptr %PC, align 8
  %2282 = add i64 %2281, 1
  store i64 %2282, ptr %NEXT_PC, align 8
  %2283 = load ptr, ptr %MEMORY, align 8
  %2284 = call ptr @_ZN12_GLOBAL__N_16DoINT3EP6MemoryR5State3RnWImE(ptr %2283, ptr %state, ptr undef)
  store ptr %2284, ptr %MEMORY, align 8
  %2285 = load i64, ptr %NEXT_PC, align 8
  store i64 %2285, ptr %PC, align 8
  %2286 = add i64 %2285, 1
  store i64 %2286, ptr %NEXT_PC, align 8
  %2287 = load ptr, ptr %MEMORY, align 8
  %2288 = call ptr @_ZN12_GLOBAL__N_16DoINT3EP6MemoryR5State3RnWImE(ptr %2287, ptr %state, ptr undef)
  store ptr %2288, ptr %MEMORY, align 8
  %2289 = load i64, ptr %NEXT_PC, align 8
  store i64 %2289, ptr %PC, align 8
  %2290 = add i64 %2289, 1
  store i64 %2290, ptr %NEXT_PC, align 8
  %2291 = load ptr, ptr %MEMORY, align 8
  %2292 = call ptr @_ZN12_GLOBAL__N_16DoINT3EP6MemoryR5State3RnWImE(ptr %2291, ptr %state, ptr undef)
  store ptr %2292, ptr %MEMORY, align 8
  %2293 = load i64, ptr %NEXT_PC, align 8
  store i64 %2293, ptr %PC, align 8
  %2294 = add i64 %2293, 1
  store i64 %2294, ptr %NEXT_PC, align 8
  %2295 = load ptr, ptr %MEMORY, align 8
  %2296 = call ptr @_ZN12_GLOBAL__N_16DoINT3EP6MemoryR5State3RnWImE(ptr %2295, ptr %state, ptr undef)
  store ptr %2296, ptr %MEMORY, align 8
  %2297 = load i64, ptr %NEXT_PC, align 8
  store i64 %2297, ptr %PC, align 8
  %2298 = add i64 %2297, 1
  store i64 %2298, ptr %NEXT_PC, align 8
  %2299 = load ptr, ptr %MEMORY, align 8
  %2300 = call ptr @_ZN12_GLOBAL__N_16DoINT3EP6MemoryR5State3RnWImE(ptr %2299, ptr %state, ptr undef)
  store ptr %2300, ptr %MEMORY, align 8
  %2301 = load i64, ptr %NEXT_PC, align 8
  store i64 %2301, ptr %PC, align 8
  %2302 = add i64 %2301, 1
  store i64 %2302, ptr %NEXT_PC, align 8
  %2303 = load ptr, ptr %MEMORY, align 8
  %2304 = call ptr @_ZN12_GLOBAL__N_16DoINT3EP6MemoryR5State3RnWImE(ptr %2303, ptr %state, ptr undef)
  store ptr %2304, ptr %MEMORY, align 8
  %2305 = load i64, ptr %NEXT_PC, align 8
  store i64 %2305, ptr %PC, align 8
  %2306 = add i64 %2305, 3
  store i64 %2306, ptr %NEXT_PC, align 8
  %2307 = load i64, ptr %RCX, align 8
  %2308 = add i64 %2307, 32
  %2309 = load ptr, ptr %MEMORY, align 8
  %2310 = call ptr @_ZN12_GLOBAL__N_13MOVI3RnWImE2MnIjEEEP6MemoryS6_R5StateT_T0_(ptr %2309, ptr %state, ptr %RAX, i64 %2308)
  store ptr %2310, ptr %MEMORY, align 8
  %2311 = load i64, ptr %NEXT_PC, align 8
  store i64 %2311, ptr %PC, align 8
  %2312 = add i64 %2311, 1
  store i64 %2312, ptr %NEXT_PC, align 8
  %2313 = load ptr, ptr %MEMORY, align 8
  %2314 = call ptr @_ZN12_GLOBAL__N_13RETEP6MemoryR5State3RnWImE(ptr %2313, ptr %state, ptr %NEXT_PC)
  store ptr %2314, ptr %MEMORY, align 8
  ret ptr %memory

bb_5395658788:                                    ; No predecessors!
  %2315 = load i64, ptr %NEXT_PC, align 8
  store i64 %2315, ptr %PC, align 8
  %2316 = add i64 %2315, 1
  store i64 %2316, ptr %NEXT_PC, align 8
  %2317 = load ptr, ptr %MEMORY, align 8
  %2318 = call ptr @_ZN12_GLOBAL__N_16DoINT3EP6MemoryR5State3RnWImE(ptr %2317, ptr %state, ptr undef)
  store ptr %2318, ptr %MEMORY, align 8
  %2319 = load i64, ptr %NEXT_PC, align 8
  store i64 %2319, ptr %PC, align 8
  %2320 = add i64 %2319, 1
  store i64 %2320, ptr %NEXT_PC, align 8
  %2321 = load ptr, ptr %MEMORY, align 8
  %2322 = call ptr @_ZN12_GLOBAL__N_16DoINT3EP6MemoryR5State3RnWImE(ptr %2321, ptr %state, ptr undef)
  store ptr %2322, ptr %MEMORY, align 8
  %2323 = load i64, ptr %NEXT_PC, align 8
  store i64 %2323, ptr %PC, align 8
  %2324 = add i64 %2323, 1
  store i64 %2324, ptr %NEXT_PC, align 8
  %2325 = load ptr, ptr %MEMORY, align 8
  %2326 = call ptr @_ZN12_GLOBAL__N_16DoINT3EP6MemoryR5State3RnWImE(ptr %2325, ptr %state, ptr undef)
  store ptr %2326, ptr %MEMORY, align 8
  %2327 = load i64, ptr %NEXT_PC, align 8
  store i64 %2327, ptr %PC, align 8
  %2328 = add i64 %2327, 1
  store i64 %2328, ptr %NEXT_PC, align 8
  %2329 = load ptr, ptr %MEMORY, align 8
  %2330 = call ptr @_ZN12_GLOBAL__N_16DoINT3EP6MemoryR5State3RnWImE(ptr %2329, ptr %state, ptr undef)
  store ptr %2330, ptr %MEMORY, align 8
  %2331 = load i64, ptr %NEXT_PC, align 8
  store i64 %2331, ptr %PC, align 8
  %2332 = add i64 %2331, 1
  store i64 %2332, ptr %NEXT_PC, align 8
  %2333 = load ptr, ptr %MEMORY, align 8
  %2334 = call ptr @_ZN12_GLOBAL__N_16DoINT3EP6MemoryR5State3RnWImE(ptr %2333, ptr %state, ptr undef)
  store ptr %2334, ptr %MEMORY, align 8
  %2335 = load i64, ptr %NEXT_PC, align 8
  store i64 %2335, ptr %PC, align 8
  %2336 = add i64 %2335, 1
  store i64 %2336, ptr %NEXT_PC, align 8
  %2337 = load ptr, ptr %MEMORY, align 8
  %2338 = call ptr @_ZN12_GLOBAL__N_16DoINT3EP6MemoryR5State3RnWImE(ptr %2337, ptr %state, ptr undef)
  store ptr %2338, ptr %MEMORY, align 8
  %2339 = load i64, ptr %NEXT_PC, align 8
  store i64 %2339, ptr %PC, align 8
  %2340 = add i64 %2339, 1
  store i64 %2340, ptr %NEXT_PC, align 8
  %2341 = load ptr, ptr %MEMORY, align 8
  %2342 = call ptr @_ZN12_GLOBAL__N_16DoINT3EP6MemoryR5State3RnWImE(ptr %2341, ptr %state, ptr undef)
  store ptr %2342, ptr %MEMORY, align 8
  %2343 = load i64, ptr %NEXT_PC, align 8
  store i64 %2343, ptr %PC, align 8
  %2344 = add i64 %2343, 1
  store i64 %2344, ptr %NEXT_PC, align 8
  %2345 = load ptr, ptr %MEMORY, align 8
  %2346 = call ptr @_ZN12_GLOBAL__N_16DoINT3EP6MemoryR5State3RnWImE(ptr %2345, ptr %state, ptr undef)
  store ptr %2346, ptr %MEMORY, align 8
  %2347 = load i64, ptr %NEXT_PC, align 8
  store i64 %2347, ptr %PC, align 8
  %2348 = add i64 %2347, 1
  store i64 %2348, ptr %NEXT_PC, align 8
  %2349 = load ptr, ptr %MEMORY, align 8
  %2350 = call ptr @_ZN12_GLOBAL__N_16DoINT3EP6MemoryR5State3RnWImE(ptr %2349, ptr %state, ptr undef)
  store ptr %2350, ptr %MEMORY, align 8
  %2351 = load i64, ptr %NEXT_PC, align 8
  store i64 %2351, ptr %PC, align 8
  %2352 = add i64 %2351, 1
  store i64 %2352, ptr %NEXT_PC, align 8
  %2353 = load ptr, ptr %MEMORY, align 8
  %2354 = call ptr @_ZN12_GLOBAL__N_16DoINT3EP6MemoryR5State3RnWImE(ptr %2353, ptr %state, ptr undef)
  store ptr %2354, ptr %MEMORY, align 8
  %2355 = load i64, ptr %NEXT_PC, align 8
  store i64 %2355, ptr %PC, align 8
  %2356 = add i64 %2355, 1
  store i64 %2356, ptr %NEXT_PC, align 8
  %2357 = load ptr, ptr %MEMORY, align 8
  %2358 = call ptr @_ZN12_GLOBAL__N_16DoINT3EP6MemoryR5State3RnWImE(ptr %2357, ptr %state, ptr undef)
  store ptr %2358, ptr %MEMORY, align 8
  %2359 = load i64, ptr %NEXT_PC, align 8
  store i64 %2359, ptr %PC, align 8
  %2360 = add i64 %2359, 1
  store i64 %2360, ptr %NEXT_PC, align 8
  %2361 = load ptr, ptr %MEMORY, align 8
  %2362 = call ptr @_ZN12_GLOBAL__N_16DoINT3EP6MemoryR5State3RnWImE(ptr %2361, ptr %state, ptr undef)
  store ptr %2362, ptr %MEMORY, align 8
  ret ptr %memory

bb_5395658800:                                    ; preds = %bb_5395658900
  %2363 = load i64, ptr %NEXT_PC, align 8
  store i64 %2363, ptr %PC, align 8
  %2364 = add i64 %2363, 5
  store i64 %2364, ptr %NEXT_PC, align 8
  %2365 = load i64, ptr %RSP, align 8
  %2366 = add i64 %2365, 8
  %2367 = load i64, ptr %RBX, align 8
  %2368 = load ptr, ptr %MEMORY, align 8
  %2369 = call ptr @_ZN12_GLOBAL__N_13MOVI3MnWImE2RnImLb1EEEEP6MemoryS6_R5StateT_T0_(ptr %2368, ptr %state, i64 %2366, i64 %2367)
  store ptr %2369, ptr %MEMORY, align 8
  %2370 = load i64, ptr %NEXT_PC, align 8
  store i64 %2370, ptr %PC, align 8
  %2371 = add i64 %2370, 5
  store i64 %2371, ptr %NEXT_PC, align 8
  %2372 = load i64, ptr %RSP, align 8
  %2373 = add i64 %2372, 16
  %2374 = load i64, ptr %RSI, align 8
  %2375 = load ptr, ptr %MEMORY, align 8
  %2376 = call ptr @_ZN12_GLOBAL__N_13MOVI3MnWImE2RnImLb1EEEEP6MemoryS6_R5StateT_T0_(ptr %2375, ptr %state, i64 %2373, i64 %2374)
  store ptr %2376, ptr %MEMORY, align 8
  %2377 = load i64, ptr %NEXT_PC, align 8
  store i64 %2377, ptr %PC, align 8
  %2378 = add i64 %2377, 1
  store i64 %2378, ptr %NEXT_PC, align 8
  %2379 = load i64, ptr %RDI, align 8
  %2380 = load ptr, ptr %MEMORY, align 8
  %2381 = call ptr @_ZN12_GLOBAL__N_14PUSHI2InImEEEP6MemoryS4_R5StateT_(ptr %2380, ptr %state, i64 %2379)
  store ptr %2381, ptr %MEMORY, align 8
  %2382 = load i64, ptr %NEXT_PC, align 8
  store i64 %2382, ptr %PC, align 8
  %2383 = add i64 %2382, 4
  store i64 %2383, ptr %NEXT_PC, align 8
  %2384 = load i64, ptr %RSP, align 8
  %2385 = load ptr, ptr %MEMORY, align 8
  %2386 = call ptr @_ZN12_GLOBAL__N_13SUBI3RnWImE2RnImLb1EE2InImEEEP6MemoryS8_R5StateT_T0_T1_(ptr %2385, ptr %state, ptr %RSP, i64 %2384, i64 32)
  store ptr %2386, ptr %MEMORY, align 8
  %2387 = load i64, ptr %NEXT_PC, align 8
  store i64 %2387, ptr %PC, align 8
  %2388 = add i64 %2387, 2
  store i64 %2388, ptr %NEXT_PC, align 8
  %2389 = load i32, ptr %EDX, align 4
  %2390 = zext i32 %2389 to i64
  %2391 = load ptr, ptr %MEMORY, align 8
  %2392 = call ptr @_ZN12_GLOBAL__N_13MOVI3RnWImE2RnIjLb1EEEEP6MemoryS6_R5StateT_T0_(ptr %2391, ptr %state, ptr %RDI, i64 %2390)
  store ptr %2392, ptr %MEMORY, align 8
  %2393 = load i64, ptr %NEXT_PC, align 8
  store i64 %2393, ptr %PC, align 8
  %2394 = add i64 %2393, 3
  store i64 %2394, ptr %NEXT_PC, align 8
  %2395 = load i64, ptr %RCX, align 8
  %2396 = load ptr, ptr %MEMORY, align 8
  %2397 = call ptr @_ZN12_GLOBAL__N_13MOVI3RnWImE2RnImLb1EEEEP6MemoryS6_R5StateT_T0_(ptr %2396, ptr %state, ptr %RSI, i64 %2395)
  store ptr %2397, ptr %MEMORY, align 8
  %2398 = load i64, ptr %NEXT_PC, align 8
  store i64 %2398, ptr %PC, align 8
  %2399 = add i64 %2398, 3
  store i64 %2399, ptr %NEXT_PC, align 8
  %2400 = load i64, ptr %RCX, align 8
  %2401 = load ptr, ptr %MEMORY, align 8
  %2402 = call ptr @_ZN12_GLOBAL__N_13MOVI3RnWImE2RnImLb1EEEEP6MemoryS6_R5StateT_T0_(ptr %2401, ptr %state, ptr %RBX, i64 %2400)
  store ptr %2402, ptr %MEMORY, align 8
  %2403 = load i64, ptr %NEXT_PC, align 8
  store i64 %2403, ptr %PC, align 8
  %2404 = add i64 %2403, 5
  store i64 %2404, ptr %NEXT_PC, align 8
  %2405 = load i64, ptr %NEXT_PC, align 8
  %2406 = add i64 %2405, 484
  %2407 = load i64, ptr %NEXT_PC, align 8
  %2408 = load ptr, ptr %MEMORY, align 8
  %2409 = call ptr @_ZN12_GLOBAL__N_14CALLI2InImEEEP6MemoryS4_R5StateT_3RnWImES2_S9_(ptr %2408, ptr %state, i64 %2406, ptr %NEXT_PC, i64 %2407, ptr %RETURN_PC)
  store ptr %2409, ptr %MEMORY, align 8
  %2410 = load i64, ptr %NEXT_PC, align 8
  store i64 %2410, ptr %PC, align 8
  %2411 = add i64 %2410, 2
  store i64 %2411, ptr %NEXT_PC, align 8
  %2412 = load i64, ptr %RDI, align 8
  %2413 = load i32, ptr %EAX, align 4
  %2414 = zext i32 %2413 to i64
  %2415 = load ptr, ptr %MEMORY, align 8
  %2416 = call ptr @_ZN12_GLOBAL__N_13SUBI3RnWImE2RnIjLb1EES4_EEP6MemoryS6_R5StateT_T0_T1_(ptr %2415, ptr %state, ptr %RDI, i64 %2412, i64 %2414)
  store ptr %2416, ptr %MEMORY, align 8
  %2417 = load i64, ptr %NEXT_PC, align 8
  store i64 %2417, ptr %PC, align 8
  %2418 = add i64 %2417, 3
  store i64 %2418, ptr %NEXT_PC, align 8
  %2419 = load i64, ptr %RBX, align 8
  %2420 = load i64, ptr %RBX, align 8
  %2421 = load ptr, ptr %MEMORY, align 8
  %2422 = call ptr @_ZN12_GLOBAL__N_14TESTI2RnImLb1EES2_EEP6MemoryS4_R5StateT_T0_(ptr %2421, ptr %state, i64 %2419, i64 %2420)
  store ptr %2422, ptr %MEMORY, align 8
  %2423 = load i64, ptr %NEXT_PC, align 8
  store i64 %2423, ptr %PC, align 8
  %2424 = add i64 %2423, 2
  store i64 %2424, ptr %NEXT_PC, align 8
  %2425 = load i64, ptr %NEXT_PC, align 8
  %2426 = add i64 %2425, 14
  %2427 = load i64, ptr %NEXT_PC, align 8
  %2428 = load ptr, ptr %MEMORY, align 8
  %2429 = call ptr @_ZN12_GLOBAL__N_12JZEP6MemoryR5State3RnWIhE2InImES7_S4_ImE(ptr %2428, ptr %state, ptr %BRANCH_TAKEN, i64 %2426, i64 %2427, ptr %NEXT_PC)
  store ptr %2429, ptr %MEMORY, align 8
  br i1 true, label %bb_5395658849, label %bb_5395658835

bb_5395658835:                                    ; preds = %bb_5395658840, %bb_5395658800
  %2430 = load i64, ptr %NEXT_PC, align 8
  store i64 %2430, ptr %PC, align 8
  %2431 = add i64 %2430, 3
  store i64 %2431, ptr %NEXT_PC, align 8
  %2432 = load i64, ptr %RDI, align 8
  %2433 = load i64, ptr %RBX, align 8
  %2434 = add i64 %2433, 48
  %2435 = load ptr, ptr %MEMORY, align 8
  %2436 = call ptr @_ZN12_GLOBAL__N_13ADDI3RnWImE2RnIjLb1EE2MnIjEEEP6MemoryS8_R5StateT_T0_T1_(ptr %2435, ptr %state, ptr %RDI, i64 %2432, i64 %2434)
  store ptr %2436, ptr %MEMORY, align 8
  %2437 = load i64, ptr %NEXT_PC, align 8
  store i64 %2437, ptr %PC, align 8
  %2438 = add i64 %2437, 2
  store i64 %2438, ptr %NEXT_PC, align 8
  %2439 = load i64, ptr %NEXT_PC, align 8
  %2440 = add i64 %2439, 29
  %2441 = load i64, ptr %NEXT_PC, align 8
  %2442 = load ptr, ptr %MEMORY, align 8
  %2443 = call ptr @_ZN12_GLOBAL__N_13JNSEP6MemoryR5State3RnWIhE2InImES7_S4_ImE(ptr %2442, ptr %state, ptr %BRANCH_TAKEN, i64 %2440, i64 %2441, ptr %NEXT_PC)
  store ptr %2443, ptr %MEMORY, align 8
  br i1 true, label %bb_5395658869, label %bb_5395658840

bb_5395658840:                                    ; preds = %bb_5395658835
  %2444 = load i64, ptr %NEXT_PC, align 8
  store i64 %2444, ptr %PC, align 8
  %2445 = add i64 %2444, 4
  store i64 %2445, ptr %NEXT_PC, align 8
  %2446 = load i64, ptr %RBX, align 8
  %2447 = add i64 %2446, 8
  %2448 = load ptr, ptr %MEMORY, align 8
  %2449 = call ptr @_ZN12_GLOBAL__N_13MOVI3RnWImE2MnImEEEP6MemoryS6_R5StateT_T0_(ptr %2448, ptr %state, ptr %RBX, i64 %2447)
  store ptr %2449, ptr %MEMORY, align 8
  %2450 = load i64, ptr %NEXT_PC, align 8
  store i64 %2450, ptr %PC, align 8
  %2451 = add i64 %2450, 3
  store i64 %2451, ptr %NEXT_PC, align 8
  %2452 = load i64, ptr %RBX, align 8
  %2453 = load i64, ptr %RBX, align 8
  %2454 = load ptr, ptr %MEMORY, align 8
  %2455 = call ptr @_ZN12_GLOBAL__N_14TESTI2RnImLb1EES2_EEP6MemoryS4_R5StateT_T0_(ptr %2454, ptr %state, i64 %2452, i64 %2453)
  store ptr %2455, ptr %MEMORY, align 8
  %2456 = load i64, ptr %NEXT_PC, align 8
  store i64 %2456, ptr %PC, align 8
  %2457 = add i64 %2456, 2
  store i64 %2457, ptr %NEXT_PC, align 8
  %2458 = load i64, ptr %NEXT_PC, align 8
  %2459 = sub i64 %2458, 14
  %2460 = load i64, ptr %NEXT_PC, align 8
  %2461 = load ptr, ptr %MEMORY, align 8
  %2462 = call ptr @_ZN12_GLOBAL__N_13JNZEP6MemoryR5State3RnWIhE2InImES7_S4_ImE(ptr %2461, ptr %state, ptr %BRANCH_TAKEN, i64 %2459, i64 %2460, ptr %NEXT_PC)
  store ptr %2462, ptr %MEMORY, align 8
  br i1 true, label %bb_5395658835, label %bb_5395658849

bb_5395658849:                                    ; preds = %bb_5395658840, %bb_5395658800
  %2463 = load i64, ptr %NEXT_PC, align 8
  store i64 %2463, ptr %PC, align 8
  %2464 = add i64 %2463, 4
  store i64 %2464, ptr %NEXT_PC, align 8
  %2465 = load i64, ptr %RSI, align 8
  %2466 = add i64 %2465, 40
  %2467 = load ptr, ptr %MEMORY, align 8
  %2468 = call ptr @_ZN12_GLOBAL__N_13MOVI3RnWImE2MnImEEEP6MemoryS6_R5StateT_T0_(ptr %2467, ptr %state, ptr %RAX, i64 %2466)
  store ptr %2468, ptr %MEMORY, align 8
  %2469 = load i64, ptr %NEXT_PC, align 8
  store i64 %2469, ptr %PC, align 8
  %2470 = add i64 %2469, 5
  store i64 %2470, ptr %NEXT_PC, align 8
  %2471 = load i64, ptr %RSP, align 8
  %2472 = add i64 %2471, 48
  %2473 = load ptr, ptr %MEMORY, align 8
  %2474 = call ptr @_ZN12_GLOBAL__N_13MOVI3RnWImE2MnImEEEP6MemoryS6_R5StateT_T0_(ptr %2473, ptr %state, ptr %RBX, i64 %2472)
  store ptr %2474, ptr %MEMORY, align 8
  %2475 = load i64, ptr %NEXT_PC, align 8
  store i64 %2475, ptr %PC, align 8
  %2476 = add i64 %2475, 5
  store i64 %2476, ptr %NEXT_PC, align 8
  %2477 = load i64, ptr %RSP, align 8
  %2478 = add i64 %2477, 56
  %2479 = load ptr, ptr %MEMORY, align 8
  %2480 = call ptr @_ZN12_GLOBAL__N_13MOVI3RnWImE2MnImEEEP6MemoryS6_R5StateT_T0_(ptr %2479, ptr %state, ptr %RSI, i64 %2478)
  store ptr %2480, ptr %MEMORY, align 8
  %2481 = load i64, ptr %NEXT_PC, align 8
  store i64 %2481, ptr %PC, align 8
  %2482 = add i64 %2481, 4
  store i64 %2482, ptr %NEXT_PC, align 8
  %2483 = load i64, ptr %RSP, align 8
  %2484 = load ptr, ptr %MEMORY, align 8
  %2485 = call ptr @_ZN12_GLOBAL__N_13ADDI3RnWImE2RnImLb1EE2InImEEEP6MemoryS8_R5StateT_T0_T1_(ptr %2484, ptr %state, ptr %RSP, i64 %2483, i64 32)
  store ptr %2485, ptr %MEMORY, align 8
  %2486 = load i64, ptr %NEXT_PC, align 8
  store i64 %2486, ptr %PC, align 8
  %2487 = add i64 %2486, 1
  store i64 %2487, ptr %NEXT_PC, align 8
  %2488 = load ptr, ptr %MEMORY, align 8
  %2489 = call ptr @_ZN12_GLOBAL__N_13POPI3RnWImEEEP6MemoryS4_R5StateT_(ptr %2488, ptr %state, ptr %RDI)
  store ptr %2489, ptr %MEMORY, align 8
  %2490 = load i64, ptr %NEXT_PC, align 8
  store i64 %2490, ptr %PC, align 8
  %2491 = add i64 %2490, 1
  store i64 %2491, ptr %NEXT_PC, align 8
  %2492 = load ptr, ptr %MEMORY, align 8
  %2493 = call ptr @_ZN12_GLOBAL__N_13RETEP6MemoryR5State3RnWImE(ptr %2492, ptr %state, ptr %NEXT_PC)
  store ptr %2493, ptr %MEMORY, align 8
  ret ptr %memory

bb_5395658869:                                    ; preds = %bb_5395658835
  %2494 = load i64, ptr %NEXT_PC, align 8
  store i64 %2494, ptr %PC, align 8
  %2495 = add i64 %2494, 5
  store i64 %2495, ptr %NEXT_PC, align 8
  %2496 = load i64, ptr %RSP, align 8
  %2497 = add i64 %2496, 56
  %2498 = load ptr, ptr %MEMORY, align 8
  %2499 = call ptr @_ZN12_GLOBAL__N_13MOVI3RnWImE2MnImEEEP6MemoryS6_R5StateT_T0_(ptr %2498, ptr %state, ptr %RSI, i64 %2497)
  store ptr %2499, ptr %MEMORY, align 8
  %2500 = load i64, ptr %NEXT_PC, align 8
  store i64 %2500, ptr %PC, align 8
  %2501 = add i64 %2500, 3
  store i64 %2501, ptr %NEXT_PC, align 8
  %2502 = load i32, ptr %EDI, align 4
  %2503 = zext i32 %2502 to i64
  %2504 = load ptr, ptr %MEMORY, align 8
  %2505 = call ptr @_ZN12_GLOBAL__N_15MOVSXI3RnWImE2RnIjLb1EElEEP6MemoryS6_R5StateT_T0_(ptr %2504, ptr %state, ptr %RAX, i64 %2503)
  store ptr %2505, ptr %MEMORY, align 8
  %2506 = load i64, ptr %NEXT_PC, align 8
  store i64 %2506, ptr %PC, align 8
  %2507 = add i64 %2506, 4
  store i64 %2507, ptr %NEXT_PC, align 8
  %2508 = load i64, ptr %RAX, align 8
  %2509 = load i64, ptr %RAX, align 8
  %2510 = mul i64 %2509, 4
  %2511 = add i64 %2508, %2510
  %2512 = load ptr, ptr %MEMORY, align 8
  %2513 = call ptr @_ZN12_GLOBAL__N_13LEAI3RnWImE2MnIhEmEEP6MemoryS6_R5StateT_T0_(ptr %2512, ptr %state, ptr %RCX, i64 %2511)
  store ptr %2513, ptr %MEMORY, align 8
  %2514 = load i64, ptr %NEXT_PC, align 8
  store i64 %2514, ptr %PC, align 8
  %2515 = add i64 %2514, 4
  store i64 %2515, ptr %NEXT_PC, align 8
  %2516 = load i64, ptr %RBX, align 8
  %2517 = add i64 %2516, 40
  %2518 = load ptr, ptr %MEMORY, align 8
  %2519 = call ptr @_ZN12_GLOBAL__N_13MOVI3RnWImE2MnImEEEP6MemoryS6_R5StateT_T0_(ptr %2518, ptr %state, ptr %RAX, i64 %2517)
  store ptr %2519, ptr %MEMORY, align 8
  %2520 = load i64, ptr %NEXT_PC, align 8
  store i64 %2520, ptr %PC, align 8
  %2521 = add i64 %2520, 5
  store i64 %2521, ptr %NEXT_PC, align 8
  %2522 = load i64, ptr %RSP, align 8
  %2523 = add i64 %2522, 48
  %2524 = load ptr, ptr %MEMORY, align 8
  %2525 = call ptr @_ZN12_GLOBAL__N_13MOVI3RnWImE2MnImEEEP6MemoryS6_R5StateT_T0_(ptr %2524, ptr %state, ptr %RBX, i64 %2523)
  store ptr %2525, ptr %MEMORY, align 8
  %2526 = load i64, ptr %NEXT_PC, align 8
  store i64 %2526, ptr %PC, align 8
  %2527 = add i64 %2526, 4
  store i64 %2527, ptr %NEXT_PC, align 8
  %2528 = load i64, ptr %RAX, align 8
  %2529 = load i64, ptr %RCX, align 8
  %2530 = mul i64 %2529, 8
  %2531 = add i64 %2528, %2530
  %2532 = load ptr, ptr %MEMORY, align 8
  %2533 = call ptr @_ZN12_GLOBAL__N_13LEAI3RnWImE2MnIhEmEEP6MemoryS6_R5StateT_T0_(ptr %2532, ptr %state, ptr %RAX, i64 %2531)
  store ptr %2533, ptr %MEMORY, align 8
  %2534 = load i64, ptr %NEXT_PC, align 8
  store i64 %2534, ptr %PC, align 8
  %2535 = add i64 %2534, 4
  store i64 %2535, ptr %NEXT_PC, align 8
  %2536 = load i64, ptr %RSP, align 8
  %2537 = load ptr, ptr %MEMORY, align 8
  %2538 = call ptr @_ZN12_GLOBAL__N_13ADDI3RnWImE2RnImLb1EE2InImEEEP6MemoryS8_R5StateT_T0_T1_(ptr %2537, ptr %state, ptr %RSP, i64 %2536, i64 32)
  store ptr %2538, ptr %MEMORY, align 8
  %2539 = load i64, ptr %NEXT_PC, align 8
  store i64 %2539, ptr %PC, align 8
  %2540 = add i64 %2539, 1
  store i64 %2540, ptr %NEXT_PC, align 8
  %2541 = load ptr, ptr %MEMORY, align 8
  %2542 = call ptr @_ZN12_GLOBAL__N_13POPI3RnWImEEEP6MemoryS4_R5StateT_(ptr %2541, ptr %state, ptr %RDI)
  store ptr %2542, ptr %MEMORY, align 8
  %2543 = load i64, ptr %NEXT_PC, align 8
  store i64 %2543, ptr %PC, align 8
  %2544 = add i64 %2543, 1
  store i64 %2544, ptr %NEXT_PC, align 8
  %2545 = load ptr, ptr %MEMORY, align 8
  %2546 = call ptr @_ZN12_GLOBAL__N_13RETEP6MemoryR5State3RnWImE(ptr %2545, ptr %state, ptr %NEXT_PC)
  store ptr %2546, ptr %MEMORY, align 8
  ret ptr %memory

bb_5395658900:                                    ; No predecessors!
  %2547 = load i64, ptr %NEXT_PC, align 8
  store i64 %2547, ptr %PC, align 8
  %2548 = add i64 %2547, 1
  store i64 %2548, ptr %NEXT_PC, align 8
  %2549 = load ptr, ptr %MEMORY, align 8
  %2550 = call ptr @_ZN12_GLOBAL__N_16DoINT3EP6MemoryR5State3RnWImE(ptr %2549, ptr %state, ptr undef)
  store ptr %2550, ptr %MEMORY, align 8
  %2551 = load i64, ptr %NEXT_PC, align 8
  store i64 %2551, ptr %PC, align 8
  %2552 = add i64 %2551, 1
  store i64 %2552, ptr %NEXT_PC, align 8
  %2553 = load ptr, ptr %MEMORY, align 8
  %2554 = call ptr @_ZN12_GLOBAL__N_16DoINT3EP6MemoryR5State3RnWImE(ptr %2553, ptr %state, ptr undef)
  store ptr %2554, ptr %MEMORY, align 8
  %2555 = load i64, ptr %NEXT_PC, align 8
  store i64 %2555, ptr %PC, align 8
  %2556 = add i64 %2555, 1
  store i64 %2556, ptr %NEXT_PC, align 8
  %2557 = load ptr, ptr %MEMORY, align 8
  %2558 = call ptr @_ZN12_GLOBAL__N_16DoINT3EP6MemoryR5State3RnWImE(ptr %2557, ptr %state, ptr undef)
  store ptr %2558, ptr %MEMORY, align 8
  %2559 = load i64, ptr %NEXT_PC, align 8
  store i64 %2559, ptr %PC, align 8
  %2560 = add i64 %2559, 1
  store i64 %2560, ptr %NEXT_PC, align 8
  %2561 = load ptr, ptr %MEMORY, align 8
  %2562 = call ptr @_ZN12_GLOBAL__N_16DoINT3EP6MemoryR5State3RnWImE(ptr %2561, ptr %state, ptr undef)
  store ptr %2562, ptr %MEMORY, align 8
  %2563 = load i64, ptr %NEXT_PC, align 8
  store i64 %2563, ptr %PC, align 8
  %2564 = add i64 %2563, 1
  store i64 %2564, ptr %NEXT_PC, align 8
  %2565 = load ptr, ptr %MEMORY, align 8
  %2566 = call ptr @_ZN12_GLOBAL__N_16DoINT3EP6MemoryR5State3RnWImE(ptr %2565, ptr %state, ptr undef)
  store ptr %2566, ptr %MEMORY, align 8
  %2567 = load i64, ptr %NEXT_PC, align 8
  store i64 %2567, ptr %PC, align 8
  %2568 = add i64 %2567, 1
  store i64 %2568, ptr %NEXT_PC, align 8
  %2569 = load ptr, ptr %MEMORY, align 8
  %2570 = call ptr @_ZN12_GLOBAL__N_16DoINT3EP6MemoryR5State3RnWImE(ptr %2569, ptr %state, ptr undef)
  store ptr %2570, ptr %MEMORY, align 8
  %2571 = load i64, ptr %NEXT_PC, align 8
  store i64 %2571, ptr %PC, align 8
  %2572 = add i64 %2571, 1
  store i64 %2572, ptr %NEXT_PC, align 8
  %2573 = load ptr, ptr %MEMORY, align 8
  %2574 = call ptr @_ZN12_GLOBAL__N_16DoINT3EP6MemoryR5State3RnWImE(ptr %2573, ptr %state, ptr undef)
  store ptr %2574, ptr %MEMORY, align 8
  %2575 = load i64, ptr %NEXT_PC, align 8
  store i64 %2575, ptr %PC, align 8
  %2576 = add i64 %2575, 1
  store i64 %2576, ptr %NEXT_PC, align 8
  %2577 = load ptr, ptr %MEMORY, align 8
  %2578 = call ptr @_ZN12_GLOBAL__N_16DoINT3EP6MemoryR5State3RnWImE(ptr %2577, ptr %state, ptr undef)
  store ptr %2578, ptr %MEMORY, align 8
  %2579 = load i64, ptr %NEXT_PC, align 8
  store i64 %2579, ptr %PC, align 8
  %2580 = add i64 %2579, 1
  store i64 %2580, ptr %NEXT_PC, align 8
  %2581 = load ptr, ptr %MEMORY, align 8
  %2582 = call ptr @_ZN12_GLOBAL__N_16DoINT3EP6MemoryR5State3RnWImE(ptr %2581, ptr %state, ptr undef)
  store ptr %2582, ptr %MEMORY, align 8
  %2583 = load i64, ptr %NEXT_PC, align 8
  store i64 %2583, ptr %PC, align 8
  %2584 = add i64 %2583, 1
  store i64 %2584, ptr %NEXT_PC, align 8
  %2585 = load ptr, ptr %MEMORY, align 8
  %2586 = call ptr @_ZN12_GLOBAL__N_16DoINT3EP6MemoryR5State3RnWImE(ptr %2585, ptr %state, ptr undef)
  store ptr %2586, ptr %MEMORY, align 8
  %2587 = load i64, ptr %NEXT_PC, align 8
  store i64 %2587, ptr %PC, align 8
  %2588 = add i64 %2587, 1
  store i64 %2588, ptr %NEXT_PC, align 8
  %2589 = load ptr, ptr %MEMORY, align 8
  %2590 = call ptr @_ZN12_GLOBAL__N_16DoINT3EP6MemoryR5State3RnWImE(ptr %2589, ptr %state, ptr undef)
  store ptr %2590, ptr %MEMORY, align 8
  %2591 = load i64, ptr %NEXT_PC, align 8
  store i64 %2591, ptr %PC, align 8
  %2592 = add i64 %2591, 1
  store i64 %2592, ptr %NEXT_PC, align 8
  %2593 = load ptr, ptr %MEMORY, align 8
  %2594 = call ptr @_ZN12_GLOBAL__N_16DoINT3EP6MemoryR5State3RnWImE(ptr %2593, ptr %state, ptr undef)
  store ptr %2594, ptr %MEMORY, align 8
  %2595 = load i64, ptr %NEXT_PC, align 8
  store i64 %2595, ptr %PC, align 8
  %2596 = add i64 %2595, 5
  store i64 %2596, ptr %NEXT_PC, align 8
  %2597 = load i64, ptr %NEXT_PC, align 8
  %2598 = sub i64 %2597, 117
  %2599 = load ptr, ptr %MEMORY, align 8
  %2600 = call ptr @_ZN12_GLOBAL__N_13JMPI2InImEEEP6MemoryS4_R5StateT_3RnWImE(ptr %2599, ptr %state, i64 %2598, ptr %NEXT_PC)
  store ptr %2600, ptr %MEMORY, align 8
  br label %bb_5395658800
  %2601 = load i64, ptr %NEXT_PC, align 8
  store i64 %2601, ptr %PC, align 8
  %2602 = add i64 %2601, 1
  store i64 %2602, ptr %NEXT_PC, align 8
  %2603 = load ptr, ptr %MEMORY, align 8
  %2604 = call ptr @_ZN12_GLOBAL__N_16DoINT3EP6MemoryR5State3RnWImE(ptr %2603, ptr %state, ptr undef)
  store ptr %2604, ptr %MEMORY, align 8
  %2605 = load i64, ptr %NEXT_PC, align 8
  store i64 %2605, ptr %PC, align 8
  %2606 = add i64 %2605, 1
  store i64 %2606, ptr %NEXT_PC, align 8
  %2607 = load ptr, ptr %MEMORY, align 8
  %2608 = call ptr @_ZN12_GLOBAL__N_16DoINT3EP6MemoryR5State3RnWImE(ptr %2607, ptr %state, ptr undef)
  store ptr %2608, ptr %MEMORY, align 8
  %2609 = load i64, ptr %NEXT_PC, align 8
  store i64 %2609, ptr %PC, align 8
  %2610 = add i64 %2609, 1
  store i64 %2610, ptr %NEXT_PC, align 8
  %2611 = load ptr, ptr %MEMORY, align 8
  %2612 = call ptr @_ZN12_GLOBAL__N_16DoINT3EP6MemoryR5State3RnWImE(ptr %2611, ptr %state, ptr undef)
  store ptr %2612, ptr %MEMORY, align 8
  %2613 = load i64, ptr %NEXT_PC, align 8
  store i64 %2613, ptr %PC, align 8
  %2614 = add i64 %2613, 1
  store i64 %2614, ptr %NEXT_PC, align 8
  %2615 = load ptr, ptr %MEMORY, align 8
  %2616 = call ptr @_ZN12_GLOBAL__N_16DoINT3EP6MemoryR5State3RnWImE(ptr %2615, ptr %state, ptr undef)
  store ptr %2616, ptr %MEMORY, align 8
  %2617 = load i64, ptr %NEXT_PC, align 8
  store i64 %2617, ptr %PC, align 8
  %2618 = add i64 %2617, 1
  store i64 %2618, ptr %NEXT_PC, align 8
  %2619 = load ptr, ptr %MEMORY, align 8
  %2620 = call ptr @_ZN12_GLOBAL__N_16DoINT3EP6MemoryR5State3RnWImE(ptr %2619, ptr %state, ptr undef)
  store ptr %2620, ptr %MEMORY, align 8
  %2621 = load i64, ptr %NEXT_PC, align 8
  store i64 %2621, ptr %PC, align 8
  %2622 = add i64 %2621, 1
  store i64 %2622, ptr %NEXT_PC, align 8
  %2623 = load ptr, ptr %MEMORY, align 8
  %2624 = call ptr @_ZN12_GLOBAL__N_16DoINT3EP6MemoryR5State3RnWImE(ptr %2623, ptr %state, ptr undef)
  store ptr %2624, ptr %MEMORY, align 8
  %2625 = load i64, ptr %NEXT_PC, align 8
  store i64 %2625, ptr %PC, align 8
  %2626 = add i64 %2625, 1
  store i64 %2626, ptr %NEXT_PC, align 8
  %2627 = load ptr, ptr %MEMORY, align 8
  %2628 = call ptr @_ZN12_GLOBAL__N_16DoINT3EP6MemoryR5State3RnWImE(ptr %2627, ptr %state, ptr undef)
  store ptr %2628, ptr %MEMORY, align 8
  %2629 = load i64, ptr %NEXT_PC, align 8
  store i64 %2629, ptr %PC, align 8
  %2630 = add i64 %2629, 1
  store i64 %2630, ptr %NEXT_PC, align 8
  %2631 = load ptr, ptr %MEMORY, align 8
  %2632 = call ptr @_ZN12_GLOBAL__N_16DoINT3EP6MemoryR5State3RnWImE(ptr %2631, ptr %state, ptr undef)
  store ptr %2632, ptr %MEMORY, align 8
  %2633 = load i64, ptr %NEXT_PC, align 8
  store i64 %2633, ptr %PC, align 8
  %2634 = add i64 %2633, 1
  store i64 %2634, ptr %NEXT_PC, align 8
  %2635 = load ptr, ptr %MEMORY, align 8
  %2636 = call ptr @_ZN12_GLOBAL__N_16DoINT3EP6MemoryR5State3RnWImE(ptr %2635, ptr %state, ptr undef)
  store ptr %2636, ptr %MEMORY, align 8
  %2637 = load i64, ptr %NEXT_PC, align 8
  store i64 %2637, ptr %PC, align 8
  %2638 = add i64 %2637, 1
  store i64 %2638, ptr %NEXT_PC, align 8
  %2639 = load ptr, ptr %MEMORY, align 8
  %2640 = call ptr @_ZN12_GLOBAL__N_16DoINT3EP6MemoryR5State3RnWImE(ptr %2639, ptr %state, ptr undef)
  store ptr %2640, ptr %MEMORY, align 8
  %2641 = load i64, ptr %NEXT_PC, align 8
  store i64 %2641, ptr %PC, align 8
  %2642 = add i64 %2641, 1
  store i64 %2642, ptr %NEXT_PC, align 8
  %2643 = load ptr, ptr %MEMORY, align 8
  %2644 = call ptr @_ZN12_GLOBAL__N_16DoINT3EP6MemoryR5State3RnWImE(ptr %2643, ptr %state, ptr undef)
  store ptr %2644, ptr %MEMORY, align 8
  %2645 = load i64, ptr %NEXT_PC, align 8
  store i64 %2645, ptr %PC, align 8
  %2646 = add i64 %2645, 5
  store i64 %2646, ptr %NEXT_PC, align 8
  %2647 = load i64, ptr %RSP, align 8
  %2648 = add i64 %2647, 8
  %2649 = load i64, ptr %RBX, align 8
  %2650 = load ptr, ptr %MEMORY, align 8
  %2651 = call ptr @_ZN12_GLOBAL__N_13MOVI3MnWImE2RnImLb1EEEEP6MemoryS6_R5StateT_T0_(ptr %2650, ptr %state, i64 %2648, i64 %2649)
  store ptr %2651, ptr %MEMORY, align 8
  %2652 = load i64, ptr %NEXT_PC, align 8
  store i64 %2652, ptr %PC, align 8
  %2653 = add i64 %2652, 5
  store i64 %2653, ptr %NEXT_PC, align 8
  %2654 = load i64, ptr %RSP, align 8
  %2655 = add i64 %2654, 16
  %2656 = load i64, ptr %RBP, align 8
  %2657 = load ptr, ptr %MEMORY, align 8
  %2658 = call ptr @_ZN12_GLOBAL__N_13MOVI3MnWImE2RnImLb1EEEEP6MemoryS6_R5StateT_T0_(ptr %2657, ptr %state, i64 %2655, i64 %2656)
  store ptr %2658, ptr %MEMORY, align 8
  %2659 = load i64, ptr %NEXT_PC, align 8
  store i64 %2659, ptr %PC, align 8
  %2660 = add i64 %2659, 5
  store i64 %2660, ptr %NEXT_PC, align 8
  %2661 = load i64, ptr %RSP, align 8
  %2662 = add i64 %2661, 24
  %2663 = load i64, ptr %RSI, align 8
  %2664 = load ptr, ptr %MEMORY, align 8
  %2665 = call ptr @_ZN12_GLOBAL__N_13MOVI3MnWImE2RnImLb1EEEEP6MemoryS6_R5StateT_T0_(ptr %2664, ptr %state, i64 %2662, i64 %2663)
  store ptr %2665, ptr %MEMORY, align 8
  %2666 = load i64, ptr %NEXT_PC, align 8
  store i64 %2666, ptr %PC, align 8
  %2667 = add i64 %2666, 1
  store i64 %2667, ptr %NEXT_PC, align 8
  %2668 = load i64, ptr %RDI, align 8
  %2669 = load ptr, ptr %MEMORY, align 8
  %2670 = call ptr @_ZN12_GLOBAL__N_14PUSHI2InImEEEP6MemoryS4_R5StateT_(ptr %2669, ptr %state, i64 %2668)
  store ptr %2670, ptr %MEMORY, align 8
  %2671 = load i64, ptr %NEXT_PC, align 8
  store i64 %2671, ptr %PC, align 8
  %2672 = add i64 %2671, 4
  store i64 %2672, ptr %NEXT_PC, align 8
  %2673 = load i64, ptr %RSP, align 8
  %2674 = load ptr, ptr %MEMORY, align 8
  %2675 = call ptr @_ZN12_GLOBAL__N_13SUBI3RnWImE2RnImLb1EE2InImEEEP6MemoryS8_R5StateT_T0_T1_(ptr %2674, ptr %state, ptr %RSP, i64 %2673, i64 32)
  store ptr %2675, ptr %MEMORY, align 8
  %2676 = load i64, ptr %NEXT_PC, align 8
  store i64 %2676, ptr %PC, align 8
  %2677 = add i64 %2676, 3
  store i64 %2677, ptr %NEXT_PC, align 8
  %2678 = load i64, ptr %RDX, align 8
  %2679 = load ptr, ptr %MEMORY, align 8
  %2680 = call ptr @_ZN12_GLOBAL__N_13MOVI3RnWImE2RnImLb1EEEEP6MemoryS6_R5StateT_T0_(ptr %2679, ptr %state, ptr %RBP, i64 %2678)
  store ptr %2680, ptr %MEMORY, align 8
  %2681 = load i64, ptr %NEXT_PC, align 8
  store i64 %2681, ptr %PC, align 8
  %2682 = add i64 %2681, 3
  store i64 %2682, ptr %NEXT_PC, align 8
  %2683 = load i64, ptr %RCX, align 8
  %2684 = load ptr, ptr %MEMORY, align 8
  %2685 = call ptr @_ZN12_GLOBAL__N_13MOVI3RnWImE2RnImLb1EEEEP6MemoryS6_R5StateT_T0_(ptr %2684, ptr %state, ptr %RDI, i64 %2683)
  store ptr %2685, ptr %MEMORY, align 8
  %2686 = load i64, ptr %NEXT_PC, align 8
  store i64 %2686, ptr %PC, align 8
  %2687 = add i64 %2686, 2
  store i64 %2687, ptr %NEXT_PC, align 8
  %2688 = load i64, ptr %RBX, align 8
  %2689 = load i32, ptr %EBX, align 4
  %2690 = zext i32 %2689 to i64
  %2691 = load ptr, ptr %MEMORY, align 8
  %2692 = call ptr @_ZN12_GLOBAL__N_13XORI3RnWImE2RnIjLb1EES4_EEP6MemoryS6_R5StateT_T0_T1_(ptr %2691, ptr %state, ptr %RBX, i64 %2688, i64 %2690)
  store ptr %2692, ptr %MEMORY, align 8
  %2693 = load i64, ptr %NEXT_PC, align 8
  store i64 %2693, ptr %PC, align 8
  %2694 = add i64 %2693, 5
  store i64 %2694, ptr %NEXT_PC, align 8
  %2695 = load i64, ptr %NEXT_PC, align 8
  %2696 = add i64 %2695, 351
  %2697 = load i64, ptr %NEXT_PC, align 8
  %2698 = load ptr, ptr %MEMORY, align 8
  %2699 = call ptr @_ZN12_GLOBAL__N_14CALLI2InImEEEP6MemoryS4_R5StateT_3RnWImES2_S9_(ptr %2698, ptr %state, i64 %2696, ptr %NEXT_PC, i64 %2697, ptr %RETURN_PC)
  store ptr %2699, ptr %MEMORY, align 8
  %2700 = load i64, ptr %NEXT_PC, align 8
  store i64 %2700, ptr %PC, align 8
  %2701 = add i64 %2700, 2
  store i64 %2701, ptr %NEXT_PC, align 8
  %2702 = load i32, ptr %EAX, align 4
  %2703 = zext i32 %2702 to i64
  %2704 = load i32, ptr %EAX, align 4
  %2705 = zext i32 %2704 to i64
  %2706 = load ptr, ptr %MEMORY, align 8
  %2707 = call ptr @_ZN12_GLOBAL__N_14TESTI2RnIjLb1EES2_EEP6MemoryS4_R5StateT_T0_(ptr %2706, ptr %state, i64 %2703, i64 %2705)
  store ptr %2707, ptr %MEMORY, align 8
  %2708 = load i64, ptr %NEXT_PC, align 8
  store i64 %2708, ptr %PC, align 8
  %2709 = add i64 %2708, 2
  store i64 %2709, ptr %NEXT_PC, align 8
  %2710 = load i64, ptr %NEXT_PC, align 8
  %2711 = add i64 %2710, 42
  %2712 = load i64, ptr %NEXT_PC, align 8
  %2713 = load ptr, ptr %MEMORY, align 8
  %2714 = call ptr @_ZN12_GLOBAL__N_13JLEEP6MemoryR5State3RnWIhE2InImES7_S4_ImE(ptr %2713, ptr %state, ptr %BRANCH_TAKEN, i64 %2711, i64 %2712, ptr %NEXT_PC)
  store ptr %2714, ptr %MEMORY, align 8
  br i1 true, label %bb_5395659007, label %bb_5395658965

bb_5395658965:                                    ; preds = %bb_5395658993, %bb_5395658900
  %2715 = load i64, ptr %NEXT_PC, align 8
  store i64 %2715, ptr %PC, align 8
  %2716 = add i64 %2715, 2
  store i64 %2716, ptr %NEXT_PC, align 8
  %2717 = load i32, ptr %EBX, align 4
  %2718 = zext i32 %2717 to i64
  %2719 = load ptr, ptr %MEMORY, align 8
  %2720 = call ptr @_ZN12_GLOBAL__N_13MOVI3RnWImE2RnIjLb1EEEEP6MemoryS6_R5StateT_T0_(ptr %2719, ptr %state, ptr %RDX, i64 %2718)
  store ptr %2720, ptr %MEMORY, align 8
  %2721 = load i64, ptr %NEXT_PC, align 8
  store i64 %2721, ptr %PC, align 8
  %2722 = add i64 %2721, 3
  store i64 %2722, ptr %NEXT_PC, align 8
  %2723 = load i64, ptr %RDI, align 8
  %2724 = load ptr, ptr %MEMORY, align 8
  %2725 = call ptr @_ZN12_GLOBAL__N_13MOVI3RnWImE2RnImLb1EEEEP6MemoryS6_R5StateT_T0_(ptr %2724, ptr %state, ptr %RCX, i64 %2723)
  store ptr %2725, ptr %MEMORY, align 8
  %2726 = load i64, ptr %NEXT_PC, align 8
  store i64 %2726, ptr %PC, align 8
  %2727 = add i64 %2726, 5
  store i64 %2727, ptr %NEXT_PC, align 8
  %2728 = load i64, ptr %NEXT_PC, align 8
  %2729 = sub i64 %2728, 175
  %2730 = load i64, ptr %NEXT_PC, align 8
  %2731 = load ptr, ptr %MEMORY, align 8
  %2732 = call ptr @_ZN12_GLOBAL__N_14CALLI2InImEEEP6MemoryS4_R5StateT_3RnWImES2_S9_(ptr %2731, ptr %state, i64 %2729, ptr %NEXT_PC, i64 %2730, ptr %RETURN_PC)
  store ptr %2732, ptr %MEMORY, align 8
  %2733 = load i64, ptr %NEXT_PC, align 8
  store i64 %2733, ptr %PC, align 8
  %2734 = add i64 %2733, 3
  store i64 %2734, ptr %NEXT_PC, align 8
  %2735 = load i64, ptr %RBP, align 8
  %2736 = load ptr, ptr %MEMORY, align 8
  %2737 = call ptr @_ZN12_GLOBAL__N_13MOVI3RnWImE2RnImLb1EEEEP6MemoryS6_R5StateT_T0_(ptr %2736, ptr %state, ptr %RDX, i64 %2735)
  store ptr %2737, ptr %MEMORY, align 8
  %2738 = load i64, ptr %NEXT_PC, align 8
  store i64 %2738, ptr %PC, align 8
  %2739 = add i64 %2738, 3
  store i64 %2739, ptr %NEXT_PC, align 8
  %2740 = load i64, ptr %RAX, align 8
  %2741 = load ptr, ptr %MEMORY, align 8
  %2742 = call ptr @_ZN12_GLOBAL__N_13MOVI3RnWImE2RnImLb1EEEEP6MemoryS6_R5StateT_T0_(ptr %2741, ptr %state, ptr %RSI, i64 %2740)
  store ptr %2742, ptr %MEMORY, align 8
  %2743 = load i64, ptr %NEXT_PC, align 8
  store i64 %2743, ptr %PC, align 8
  %2744 = add i64 %2743, 3
  store i64 %2744, ptr %NEXT_PC, align 8
  %2745 = load i64, ptr %RAX, align 8
  %2746 = load ptr, ptr %MEMORY, align 8
  %2747 = call ptr @_ZN12_GLOBAL__N_13MOVI3RnWImE2MnImEEEP6MemoryS6_R5StateT_T0_(ptr %2746, ptr %state, ptr %RCX, i64 %2745)
  store ptr %2747, ptr %MEMORY, align 8
  %2748 = load i64, ptr %NEXT_PC, align 8
  store i64 %2748, ptr %PC, align 8
  %2749 = add i64 %2748, 5
  store i64 %2749, ptr %NEXT_PC, align 8
  %2750 = load i64, ptr %NEXT_PC, align 8
  %2751 = add i64 %2750, 45331
  %2752 = load i64, ptr %NEXT_PC, align 8
  %2753 = load ptr, ptr %MEMORY, align 8
  %2754 = call ptr @_ZN12_GLOBAL__N_14CALLI2InImEEEP6MemoryS4_R5StateT_3RnWImES2_S9_(ptr %2753, ptr %state, i64 %2751, ptr %NEXT_PC, i64 %2752, ptr %RETURN_PC)
  store ptr %2754, ptr %MEMORY, align 8
  %2755 = load i64, ptr %NEXT_PC, align 8
  store i64 %2755, ptr %PC, align 8
  %2756 = add i64 %2755, 2
  store i64 %2756, ptr %NEXT_PC, align 8
  %2757 = load i32, ptr %EAX, align 4
  %2758 = zext i32 %2757 to i64
  %2759 = load i32, ptr %EAX, align 4
  %2760 = zext i32 %2759 to i64
  %2761 = load ptr, ptr %MEMORY, align 8
  %2762 = call ptr @_ZN12_GLOBAL__N_14TESTI2RnIjLb1EES2_EEP6MemoryS4_R5StateT_T0_(ptr %2761, ptr %state, i64 %2758, i64 %2760)
  store ptr %2762, ptr %MEMORY, align 8
  %2763 = load i64, ptr %NEXT_PC, align 8
  store i64 %2763, ptr %PC, align 8
  %2764 = add i64 %2763, 2
  store i64 %2764, ptr %NEXT_PC, align 8
  %2765 = load i64, ptr %NEXT_PC, align 8
  %2766 = add i64 %2765, 37
  %2767 = load i64, ptr %NEXT_PC, align 8
  %2768 = load ptr, ptr %MEMORY, align 8
  %2769 = call ptr @_ZN12_GLOBAL__N_12JZEP6MemoryR5State3RnWIhE2InImES7_S4_ImE(ptr %2768, ptr %state, ptr %BRANCH_TAKEN, i64 %2766, i64 %2767, ptr %NEXT_PC)
  store ptr %2769, ptr %MEMORY, align 8
  br i1 true, label %bb_5395659030, label %bb_5395658993

bb_5395658993:                                    ; preds = %bb_5395658965
  %2770 = load i64, ptr %NEXT_PC, align 8
  store i64 %2770, ptr %PC, align 8
  %2771 = add i64 %2770, 3
  store i64 %2771, ptr %NEXT_PC, align 8
  %2772 = load i64, ptr %RDI, align 8
  %2773 = load ptr, ptr %MEMORY, align 8
  %2774 = call ptr @_ZN12_GLOBAL__N_13MOVI3RnWImE2RnImLb1EEEEP6MemoryS6_R5StateT_T0_(ptr %2773, ptr %state, ptr %RCX, i64 %2772)
  store ptr %2774, ptr %MEMORY, align 8
  %2775 = load i64, ptr %NEXT_PC, align 8
  store i64 %2775, ptr %PC, align 8
  %2776 = add i64 %2775, 2
  store i64 %2776, ptr %NEXT_PC, align 8
  %2777 = load i64, ptr %RBX, align 8
  %2778 = load ptr, ptr %MEMORY, align 8
  %2779 = call ptr @_ZN12_GLOBAL__N_13INCI3RnWImE2RnIjLb1EEEEP6MemoryS6_R5StateT_T0_(ptr %2778, ptr %state, ptr %RBX, i64 %2777)
  store ptr %2779, ptr %MEMORY, align 8
  %2780 = load i64, ptr %NEXT_PC, align 8
  store i64 %2780, ptr %PC, align 8
  %2781 = add i64 %2780, 5
  store i64 %2781, ptr %NEXT_PC, align 8
  %2782 = load i64, ptr %NEXT_PC, align 8
  %2783 = add i64 %2782, 309
  %2784 = load i64, ptr %NEXT_PC, align 8
  %2785 = load ptr, ptr %MEMORY, align 8
  %2786 = call ptr @_ZN12_GLOBAL__N_14CALLI2InImEEEP6MemoryS4_R5StateT_3RnWImES2_S9_(ptr %2785, ptr %state, i64 %2783, ptr %NEXT_PC, i64 %2784, ptr %RETURN_PC)
  store ptr %2786, ptr %MEMORY, align 8
  %2787 = load i64, ptr %NEXT_PC, align 8
  store i64 %2787, ptr %PC, align 8
  %2788 = add i64 %2787, 2
  store i64 %2788, ptr %NEXT_PC, align 8
  %2789 = load i32, ptr %EBX, align 4
  %2790 = zext i32 %2789 to i64
  %2791 = load i32, ptr %EAX, align 4
  %2792 = zext i32 %2791 to i64
  %2793 = load ptr, ptr %MEMORY, align 8
  %2794 = call ptr @_ZN12_GLOBAL__N_13CMPI2RnIjLb1EES2_EEP6MemoryS4_R5StateT_T0_(ptr %2793, ptr %state, i64 %2790, i64 %2792)
  store ptr %2794, ptr %MEMORY, align 8
  %2795 = load i64, ptr %NEXT_PC, align 8
  store i64 %2795, ptr %PC, align 8
  %2796 = add i64 %2795, 2
  store i64 %2796, ptr %NEXT_PC, align 8
  %2797 = load i64, ptr %NEXT_PC, align 8
  %2798 = sub i64 %2797, 42
  %2799 = load i64, ptr %NEXT_PC, align 8
  %2800 = load ptr, ptr %MEMORY, align 8
  %2801 = call ptr @_ZN12_GLOBAL__N_12JLEP6MemoryR5State3RnWIhE2InImES7_S4_ImE(ptr %2800, ptr %state, ptr %BRANCH_TAKEN, i64 %2798, i64 %2799, ptr %NEXT_PC)
  store ptr %2801, ptr %MEMORY, align 8
  br i1 true, label %bb_5395658965, label %bb_5395659007

bb_5395659007:                                    ; preds = %bb_5395658993, %bb_5395658900
  %2802 = load i64, ptr %NEXT_PC, align 8
  store i64 %2802, ptr %PC, align 8
  %2803 = add i64 %2802, 2
  store i64 %2803, ptr %NEXT_PC, align 8
  %2804 = load i64, ptr %RAX, align 8
  %2805 = load i32, ptr %EAX, align 4
  %2806 = zext i32 %2805 to i64
  %2807 = load ptr, ptr %MEMORY, align 8
  %2808 = call ptr @_ZN12_GLOBAL__N_13XORI3RnWImE2RnIjLb1EES4_EEP6MemoryS6_R5StateT_T0_T1_(ptr %2807, ptr %state, ptr %RAX, i64 %2804, i64 %2806)
  store ptr %2808, ptr %MEMORY, align 8
  br label %bb_5395659009

bb_5395659009:                                    ; preds = %bb_5395659030, %bb_5395659007
  %2809 = load i64, ptr %NEXT_PC, align 8
  store i64 %2809, ptr %PC, align 8
  %2810 = add i64 %2809, 5
  store i64 %2810, ptr %NEXT_PC, align 8
  %2811 = load i64, ptr %RSP, align 8
  %2812 = add i64 %2811, 48
  %2813 = load ptr, ptr %MEMORY, align 8
  %2814 = call ptr @_ZN12_GLOBAL__N_13MOVI3RnWImE2MnImEEEP6MemoryS6_R5StateT_T0_(ptr %2813, ptr %state, ptr %RBX, i64 %2812)
  store ptr %2814, ptr %MEMORY, align 8
  %2815 = load i64, ptr %NEXT_PC, align 8
  store i64 %2815, ptr %PC, align 8
  %2816 = add i64 %2815, 5
  store i64 %2816, ptr %NEXT_PC, align 8
  %2817 = load i64, ptr %RSP, align 8
  %2818 = add i64 %2817, 56
  %2819 = load ptr, ptr %MEMORY, align 8
  %2820 = call ptr @_ZN12_GLOBAL__N_13MOVI3RnWImE2MnImEEEP6MemoryS6_R5StateT_T0_(ptr %2819, ptr %state, ptr %RBP, i64 %2818)
  store ptr %2820, ptr %MEMORY, align 8
  %2821 = load i64, ptr %NEXT_PC, align 8
  store i64 %2821, ptr %PC, align 8
  %2822 = add i64 %2821, 5
  store i64 %2822, ptr %NEXT_PC, align 8
  %2823 = load i64, ptr %RSP, align 8
  %2824 = add i64 %2823, 64
  %2825 = load ptr, ptr %MEMORY, align 8
  %2826 = call ptr @_ZN12_GLOBAL__N_13MOVI3RnWImE2MnImEEEP6MemoryS6_R5StateT_T0_(ptr %2825, ptr %state, ptr %RSI, i64 %2824)
  store ptr %2826, ptr %MEMORY, align 8
  %2827 = load i64, ptr %NEXT_PC, align 8
  store i64 %2827, ptr %PC, align 8
  %2828 = add i64 %2827, 4
  store i64 %2828, ptr %NEXT_PC, align 8
  %2829 = load i64, ptr %RSP, align 8
  %2830 = load ptr, ptr %MEMORY, align 8
  %2831 = call ptr @_ZN12_GLOBAL__N_13ADDI3RnWImE2RnImLb1EE2InImEEEP6MemoryS8_R5StateT_T0_T1_(ptr %2830, ptr %state, ptr %RSP, i64 %2829, i64 32)
  store ptr %2831, ptr %MEMORY, align 8
  %2832 = load i64, ptr %NEXT_PC, align 8
  store i64 %2832, ptr %PC, align 8
  %2833 = add i64 %2832, 1
  store i64 %2833, ptr %NEXT_PC, align 8
  %2834 = load ptr, ptr %MEMORY, align 8
  %2835 = call ptr @_ZN12_GLOBAL__N_13POPI3RnWImEEEP6MemoryS4_R5StateT_(ptr %2834, ptr %state, ptr %RDI)
  store ptr %2835, ptr %MEMORY, align 8
  %2836 = load i64, ptr %NEXT_PC, align 8
  store i64 %2836, ptr %PC, align 8
  %2837 = add i64 %2836, 1
  store i64 %2837, ptr %NEXT_PC, align 8
  %2838 = load ptr, ptr %MEMORY, align 8
  %2839 = call ptr @_ZN12_GLOBAL__N_13RETEP6MemoryR5State3RnWImE(ptr %2838, ptr %state, ptr %NEXT_PC)
  store ptr %2839, ptr %MEMORY, align 8
  ret ptr %memory

bb_5395659030:                                    ; preds = %bb_5395658965
  %2840 = load i64, ptr %NEXT_PC, align 8
  store i64 %2840, ptr %PC, align 8
  %2841 = add i64 %2840, 3
  store i64 %2841, ptr %NEXT_PC, align 8
  %2842 = load i64, ptr %RSI, align 8
  %2843 = load ptr, ptr %MEMORY, align 8
  %2844 = call ptr @_ZN12_GLOBAL__N_13MOVI3RnWImE2RnImLb1EEEEP6MemoryS6_R5StateT_T0_(ptr %2843, ptr %state, ptr %RAX, i64 %2842)
  store ptr %2844, ptr %MEMORY, align 8
  %2845 = load i64, ptr %NEXT_PC, align 8
  store i64 %2845, ptr %PC, align 8
  %2846 = add i64 %2845, 2
  store i64 %2846, ptr %NEXT_PC, align 8
  %2847 = load i64, ptr %NEXT_PC, align 8
  %2848 = sub i64 %2847, 26
  %2849 = load ptr, ptr %MEMORY, align 8
  %2850 = call ptr @_ZN12_GLOBAL__N_13JMPI2InImEEEP6MemoryS4_R5StateT_3RnWImE(ptr %2849, ptr %state, i64 %2848, ptr %NEXT_PC)
  store ptr %2850, ptr %MEMORY, align 8
  br label %bb_5395659009
  %2851 = load i64, ptr %NEXT_PC, align 8
  store i64 %2851, ptr %PC, align 8
  %2852 = add i64 %2851, 1
  store i64 %2852, ptr %NEXT_PC, align 8
  %2853 = load ptr, ptr %MEMORY, align 8
  %2854 = call ptr @_ZN12_GLOBAL__N_16DoINT3EP6MemoryR5State3RnWImE(ptr %2853, ptr %state, ptr undef)
  store ptr %2854, ptr %MEMORY, align 8
  %2855 = load i64, ptr %NEXT_PC, align 8
  store i64 %2855, ptr %PC, align 8
  %2856 = add i64 %2855, 1
  store i64 %2856, ptr %NEXT_PC, align 8
  %2857 = load ptr, ptr %MEMORY, align 8
  %2858 = call ptr @_ZN12_GLOBAL__N_16DoINT3EP6MemoryR5State3RnWImE(ptr %2857, ptr %state, ptr undef)
  store ptr %2858, ptr %MEMORY, align 8
  %2859 = load i64, ptr %NEXT_PC, align 8
  store i64 %2859, ptr %PC, align 8
  %2860 = add i64 %2859, 1
  store i64 %2860, ptr %NEXT_PC, align 8
  %2861 = load ptr, ptr %MEMORY, align 8
  %2862 = call ptr @_ZN12_GLOBAL__N_16DoINT3EP6MemoryR5State3RnWImE(ptr %2861, ptr %state, ptr undef)
  store ptr %2862, ptr %MEMORY, align 8
  %2863 = load i64, ptr %NEXT_PC, align 8
  store i64 %2863, ptr %PC, align 8
  %2864 = add i64 %2863, 1
  store i64 %2864, ptr %NEXT_PC, align 8
  %2865 = load ptr, ptr %MEMORY, align 8
  %2866 = call ptr @_ZN12_GLOBAL__N_16DoINT3EP6MemoryR5State3RnWImE(ptr %2865, ptr %state, ptr undef)
  store ptr %2866, ptr %MEMORY, align 8
  %2867 = load i64, ptr %NEXT_PC, align 8
  store i64 %2867, ptr %PC, align 8
  %2868 = add i64 %2867, 1
  store i64 %2868, ptr %NEXT_PC, align 8
  %2869 = load ptr, ptr %MEMORY, align 8
  %2870 = call ptr @_ZN12_GLOBAL__N_16DoINT3EP6MemoryR5State3RnWImE(ptr %2869, ptr %state, ptr undef)
  store ptr %2870, ptr %MEMORY, align 8
  %2871 = load i64, ptr %NEXT_PC, align 8
  store i64 %2871, ptr %PC, align 8
  %2872 = add i64 %2871, 1
  store i64 %2872, ptr %NEXT_PC, align 8
  %2873 = load ptr, ptr %MEMORY, align 8
  %2874 = call ptr @_ZN12_GLOBAL__N_16DoINT3EP6MemoryR5State3RnWImE(ptr %2873, ptr %state, ptr undef)
  store ptr %2874, ptr %MEMORY, align 8
  %2875 = load i64, ptr %NEXT_PC, align 8
  store i64 %2875, ptr %PC, align 8
  %2876 = add i64 %2875, 1
  store i64 %2876, ptr %NEXT_PC, align 8
  %2877 = load ptr, ptr %MEMORY, align 8
  %2878 = call ptr @_ZN12_GLOBAL__N_16DoINT3EP6MemoryR5State3RnWImE(ptr %2877, ptr %state, ptr undef)
  store ptr %2878, ptr %MEMORY, align 8
  %2879 = load i64, ptr %NEXT_PC, align 8
  store i64 %2879, ptr %PC, align 8
  %2880 = add i64 %2879, 1
  store i64 %2880, ptr %NEXT_PC, align 8
  %2881 = load ptr, ptr %MEMORY, align 8
  %2882 = call ptr @_ZN12_GLOBAL__N_16DoINT3EP6MemoryR5State3RnWImE(ptr %2881, ptr %state, ptr undef)
  store ptr %2882, ptr %MEMORY, align 8
  %2883 = load i64, ptr %NEXT_PC, align 8
  store i64 %2883, ptr %PC, align 8
  %2884 = add i64 %2883, 1
  store i64 %2884, ptr %NEXT_PC, align 8
  %2885 = load ptr, ptr %MEMORY, align 8
  %2886 = call ptr @_ZN12_GLOBAL__N_16DoINT3EP6MemoryR5State3RnWImE(ptr %2885, ptr %state, ptr undef)
  store ptr %2886, ptr %MEMORY, align 8
  %2887 = load i64, ptr %NEXT_PC, align 8
  store i64 %2887, ptr %PC, align 8
  %2888 = add i64 %2887, 1
  store i64 %2888, ptr %NEXT_PC, align 8
  %2889 = load ptr, ptr %MEMORY, align 8
  %2890 = call ptr @_ZN12_GLOBAL__N_16DoINT3EP6MemoryR5State3RnWImE(ptr %2889, ptr %state, ptr undef)
  store ptr %2890, ptr %MEMORY, align 8
  %2891 = load i64, ptr %NEXT_PC, align 8
  store i64 %2891, ptr %PC, align 8
  %2892 = add i64 %2891, 1
  store i64 %2892, ptr %NEXT_PC, align 8
  %2893 = load ptr, ptr %MEMORY, align 8
  %2894 = call ptr @_ZN12_GLOBAL__N_16DoINT3EP6MemoryR5State3RnWImE(ptr %2893, ptr %state, ptr undef)
  store ptr %2894, ptr %MEMORY, align 8
  %2895 = load i64, ptr %NEXT_PC, align 8
  store i64 %2895, ptr %PC, align 8
  %2896 = add i64 %2895, 1
  store i64 %2896, ptr %NEXT_PC, align 8
  %2897 = load ptr, ptr %MEMORY, align 8
  %2898 = call ptr @_ZN12_GLOBAL__N_16DoINT3EP6MemoryR5State3RnWImE(ptr %2897, ptr %state, ptr undef)
  store ptr %2898, ptr %MEMORY, align 8
  %2899 = load i64, ptr %NEXT_PC, align 8
  store i64 %2899, ptr %PC, align 8
  %2900 = add i64 %2899, 1
  store i64 %2900, ptr %NEXT_PC, align 8
  %2901 = load ptr, ptr %MEMORY, align 8
  %2902 = call ptr @_ZN12_GLOBAL__N_16DoINT3EP6MemoryR5State3RnWImE(ptr %2901, ptr %state, ptr undef)
  store ptr %2902, ptr %MEMORY, align 8
  %2903 = load i64, ptr %NEXT_PC, align 8
  store i64 %2903, ptr %PC, align 8
  %2904 = add i64 %2903, 1
  store i64 %2904, ptr %NEXT_PC, align 8
  %2905 = load ptr, ptr %MEMORY, align 8
  %2906 = call ptr @_ZN12_GLOBAL__N_16DoINT3EP6MemoryR5State3RnWImE(ptr %2905, ptr %state, ptr undef)
  store ptr %2906, ptr %MEMORY, align 8
  %2907 = load i64, ptr %NEXT_PC, align 8
  store i64 %2907, ptr %PC, align 8
  %2908 = add i64 %2907, 1
  store i64 %2908, ptr %NEXT_PC, align 8
  %2909 = load ptr, ptr %MEMORY, align 8
  %2910 = call ptr @_ZN12_GLOBAL__N_16DoINT3EP6MemoryR5State3RnWImE(ptr %2909, ptr %state, ptr undef)
  store ptr %2910, ptr %MEMORY, align 8
  %2911 = load i64, ptr %NEXT_PC, align 8
  store i64 %2911, ptr %PC, align 8
  %2912 = add i64 %2911, 1
  store i64 %2912, ptr %NEXT_PC, align 8
  %2913 = load ptr, ptr %MEMORY, align 8
  %2914 = call ptr @_ZN12_GLOBAL__N_16DoINT3EP6MemoryR5State3RnWImE(ptr %2913, ptr %state, ptr undef)
  store ptr %2914, ptr %MEMORY, align 8
  %2915 = load i64, ptr %NEXT_PC, align 8
  store i64 %2915, ptr %PC, align 8
  %2916 = add i64 %2915, 1
  store i64 %2916, ptr %NEXT_PC, align 8
  %2917 = load ptr, ptr %MEMORY, align 8
  %2918 = call ptr @_ZN12_GLOBAL__N_16DoINT3EP6MemoryR5State3RnWImE(ptr %2917, ptr %state, ptr undef)
  store ptr %2918, ptr %MEMORY, align 8
  %2919 = load i64, ptr %NEXT_PC, align 8
  store i64 %2919, ptr %PC, align 8
  %2920 = add i64 %2919, 1
  store i64 %2920, ptr %NEXT_PC, align 8
  %2921 = load ptr, ptr %MEMORY, align 8
  %2922 = call ptr @_ZN12_GLOBAL__N_16DoINT3EP6MemoryR5State3RnWImE(ptr %2921, ptr %state, ptr undef)
  store ptr %2922, ptr %MEMORY, align 8
  %2923 = load i64, ptr %NEXT_PC, align 8
  store i64 %2923, ptr %PC, align 8
  %2924 = add i64 %2923, 1
  store i64 %2924, ptr %NEXT_PC, align 8
  %2925 = load ptr, ptr %MEMORY, align 8
  %2926 = call ptr @_ZN12_GLOBAL__N_16DoINT3EP6MemoryR5State3RnWImE(ptr %2925, ptr %state, ptr undef)
  store ptr %2926, ptr %MEMORY, align 8
  %2927 = load i64, ptr %NEXT_PC, align 8
  store i64 %2927, ptr %PC, align 8
  %2928 = add i64 %2927, 1
  store i64 %2928, ptr %NEXT_PC, align 8
  %2929 = load ptr, ptr %MEMORY, align 8
  %2930 = call ptr @_ZN12_GLOBAL__N_16DoINT3EP6MemoryR5State3RnWImE(ptr %2929, ptr %state, ptr undef)
  store ptr %2930, ptr %MEMORY, align 8
  %2931 = load i64, ptr %NEXT_PC, align 8
  store i64 %2931, ptr %PC, align 8
  %2932 = add i64 %2931, 1
  store i64 %2932, ptr %NEXT_PC, align 8
  %2933 = load ptr, ptr %MEMORY, align 8
  %2934 = call ptr @_ZN12_GLOBAL__N_16DoINT3EP6MemoryR5State3RnWImE(ptr %2933, ptr %state, ptr undef)
  store ptr %2934, ptr %MEMORY, align 8
  %2935 = load i64, ptr %NEXT_PC, align 8
  store i64 %2935, ptr %PC, align 8
  %2936 = add i64 %2935, 5
  store i64 %2936, ptr %NEXT_PC, align 8
  %2937 = load i64, ptr %RSP, align 8
  %2938 = add i64 %2937, 8
  %2939 = load i64, ptr %RBX, align 8
  %2940 = load ptr, ptr %MEMORY, align 8
  %2941 = call ptr @_ZN12_GLOBAL__N_13MOVI3MnWImE2RnImLb1EEEEP6MemoryS6_R5StateT_T0_(ptr %2940, ptr %state, i64 %2938, i64 %2939)
  store ptr %2941, ptr %MEMORY, align 8
  %2942 = load i64, ptr %NEXT_PC, align 8
  store i64 %2942, ptr %PC, align 8
  %2943 = add i64 %2942, 5
  store i64 %2943, ptr %NEXT_PC, align 8
  %2944 = load i64, ptr %RSP, align 8
  %2945 = add i64 %2944, 16
  %2946 = load i64, ptr %RSI, align 8
  %2947 = load ptr, ptr %MEMORY, align 8
  %2948 = call ptr @_ZN12_GLOBAL__N_13MOVI3MnWImE2RnImLb1EEEEP6MemoryS6_R5StateT_T0_(ptr %2947, ptr %state, i64 %2945, i64 %2946)
  store ptr %2948, ptr %MEMORY, align 8
  %2949 = load i64, ptr %NEXT_PC, align 8
  store i64 %2949, ptr %PC, align 8
  %2950 = add i64 %2949, 1
  store i64 %2950, ptr %NEXT_PC, align 8
  %2951 = load i64, ptr %RDI, align 8
  %2952 = load ptr, ptr %MEMORY, align 8
  %2953 = call ptr @_ZN12_GLOBAL__N_14PUSHI2InImEEEP6MemoryS4_R5StateT_(ptr %2952, ptr %state, i64 %2951)
  store ptr %2953, ptr %MEMORY, align 8
  %2954 = load i64, ptr %NEXT_PC, align 8
  store i64 %2954, ptr %PC, align 8
  %2955 = add i64 %2954, 4
  store i64 %2955, ptr %NEXT_PC, align 8
  %2956 = load i64, ptr %RSP, align 8
  %2957 = load ptr, ptr %MEMORY, align 8
  %2958 = call ptr @_ZN12_GLOBAL__N_13SUBI3RnWImE2RnImLb1EE2InImEEEP6MemoryS8_R5StateT_T0_T1_(ptr %2957, ptr %state, ptr %RSP, i64 %2956, i64 32)
  store ptr %2958, ptr %MEMORY, align 8
  %2959 = load i64, ptr %NEXT_PC, align 8
  store i64 %2959, ptr %PC, align 8
  %2960 = add i64 %2959, 3
  store i64 %2960, ptr %NEXT_PC, align 8
